
ctarget:     file format elf64-x86-64


Disassembly of section .init:

0000000000400c48 <_init>:
  400c48:	48 83 ec 08          	sub    $0x8,%rsp
  400c4c:	48 8b 05 a5 43 20 00 	mov    0x2043a5(%rip),%rax        # 604ff8 <__gmon_start__>
  400c53:	48 85 c0             	test   %rax,%rax
  400c56:	74 05                	je     400c5d <_init+0x15>
  400c58:	e8 43 02 00 00       	call   400ea0 <__gmon_start__@plt>
  400c5d:	48 83 c4 08          	add    $0x8,%rsp
  400c61:	c3                   	ret    

Disassembly of section .plt:

0000000000400c70 <.plt>:
  400c70:	ff 35 92 43 20 00    	push   0x204392(%rip)        # 605008 <_GLOBAL_OFFSET_TABLE_+0x8>
  400c76:	ff 25 94 43 20 00    	jmp    *0x204394(%rip)        # 605010 <_GLOBAL_OFFSET_TABLE_+0x10>
  400c7c:	0f 1f 40 00          	nopl   0x0(%rax)

0000000000400c80 <strcasecmp@plt>:
  400c80:	ff 25 92 43 20 00    	jmp    *0x204392(%rip)        # 605018 <strcasecmp@GLIBC_2.2.5>
  400c86:	68 00 00 00 00       	push   $0x0
  400c8b:	e9 e0 ff ff ff       	jmp    400c70 <.plt>

0000000000400c90 <__errno_location@plt>:
  400c90:	ff 25 8a 43 20 00    	jmp    *0x20438a(%rip)        # 605020 <__errno_location@GLIBC_2.2.5>
  400c96:	68 01 00 00 00       	push   $0x1
  400c9b:	e9 d0 ff ff ff       	jmp    400c70 <.plt>

0000000000400ca0 <srandom@plt>:
  400ca0:	ff 25 82 43 20 00    	jmp    *0x204382(%rip)        # 605028 <srandom@GLIBC_2.2.5>
  400ca6:	68 02 00 00 00       	push   $0x2
  400cab:	e9 c0 ff ff ff       	jmp    400c70 <.plt>

0000000000400cb0 <strncmp@plt>:
  400cb0:	ff 25 7a 43 20 00    	jmp    *0x20437a(%rip)        # 605030 <strncmp@GLIBC_2.2.5>
  400cb6:	68 03 00 00 00       	push   $0x3
  400cbb:	e9 b0 ff ff ff       	jmp    400c70 <.plt>

0000000000400cc0 <strcpy@plt>:
  400cc0:	ff 25 72 43 20 00    	jmp    *0x204372(%rip)        # 605038 <strcpy@GLIBC_2.2.5>
  400cc6:	68 04 00 00 00       	push   $0x4
  400ccb:	e9 a0 ff ff ff       	jmp    400c70 <.plt>

0000000000400cd0 <puts@plt>:
  400cd0:	ff 25 6a 43 20 00    	jmp    *0x20436a(%rip)        # 605040 <puts@GLIBC_2.2.5>
  400cd6:	68 05 00 00 00       	push   $0x5
  400cdb:	e9 90 ff ff ff       	jmp    400c70 <.plt>

0000000000400ce0 <write@plt>:
  400ce0:	ff 25 62 43 20 00    	jmp    *0x204362(%rip)        # 605048 <write@GLIBC_2.2.5>
  400ce6:	68 06 00 00 00       	push   $0x6
  400ceb:	e9 80 ff ff ff       	jmp    400c70 <.plt>

0000000000400cf0 <__stack_chk_fail@plt>:
  400cf0:	ff 25 5a 43 20 00    	jmp    *0x20435a(%rip)        # 605050 <__stack_chk_fail@GLIBC_2.4>
  400cf6:	68 07 00 00 00       	push   $0x7
  400cfb:	e9 70 ff ff ff       	jmp    400c70 <.plt>

0000000000400d00 <mmap@plt>:
  400d00:	ff 25 52 43 20 00    	jmp    *0x204352(%rip)        # 605058 <mmap@GLIBC_2.2.5>
  400d06:	68 08 00 00 00       	push   $0x8
  400d0b:	e9 60 ff ff ff       	jmp    400c70 <.plt>

0000000000400d10 <memset@plt>:
  400d10:	ff 25 4a 43 20 00    	jmp    *0x20434a(%rip)        # 605060 <memset@GLIBC_2.2.5>
  400d16:	68 09 00 00 00       	push   $0x9
  400d1b:	e9 50 ff ff ff       	jmp    400c70 <.plt>

0000000000400d20 <alarm@plt>:
  400d20:	ff 25 42 43 20 00    	jmp    *0x204342(%rip)        # 605068 <alarm@GLIBC_2.2.5>
  400d26:	68 0a 00 00 00       	push   $0xa
  400d2b:	e9 40 ff ff ff       	jmp    400c70 <.plt>

0000000000400d30 <close@plt>:
  400d30:	ff 25 3a 43 20 00    	jmp    *0x20433a(%rip)        # 605070 <close@GLIBC_2.2.5>
  400d36:	68 0b 00 00 00       	push   $0xb
  400d3b:	e9 30 ff ff ff       	jmp    400c70 <.plt>

0000000000400d40 <read@plt>:
  400d40:	ff 25 32 43 20 00    	jmp    *0x204332(%rip)        # 605078 <read@GLIBC_2.2.5>
  400d46:	68 0c 00 00 00       	push   $0xc
  400d4b:	e9 20 ff ff ff       	jmp    400c70 <.plt>

0000000000400d50 <__libc_start_main@plt>:
  400d50:	ff 25 2a 43 20 00    	jmp    *0x20432a(%rip)        # 605080 <__libc_start_main@GLIBC_2.2.5>
  400d56:	68 0d 00 00 00       	push   $0xd
  400d5b:	e9 10 ff ff ff       	jmp    400c70 <.plt>

0000000000400d60 <signal@plt>:
  400d60:	ff 25 22 43 20 00    	jmp    *0x204322(%rip)        # 605088 <signal@GLIBC_2.2.5>
  400d66:	68 0e 00 00 00       	push   $0xe
  400d6b:	e9 00 ff ff ff       	jmp    400c70 <.plt>

0000000000400d70 <gethostbyname@plt>:
  400d70:	ff 25 1a 43 20 00    	jmp    *0x20431a(%rip)        # 605090 <gethostbyname@GLIBC_2.2.5>
  400d76:	68 0f 00 00 00       	push   $0xf
  400d7b:	e9 f0 fe ff ff       	jmp    400c70 <.plt>

0000000000400d80 <__memmove_chk@plt>:
  400d80:	ff 25 12 43 20 00    	jmp    *0x204312(%rip)        # 605098 <__memmove_chk@GLIBC_2.3.4>
  400d86:	68 10 00 00 00       	push   $0x10
  400d8b:	e9 e0 fe ff ff       	jmp    400c70 <.plt>

0000000000400d90 <strtol@plt>:
  400d90:	ff 25 0a 43 20 00    	jmp    *0x20430a(%rip)        # 6050a0 <strtol@GLIBC_2.2.5>
  400d96:	68 11 00 00 00       	push   $0x11
  400d9b:	e9 d0 fe ff ff       	jmp    400c70 <.plt>

0000000000400da0 <memcpy@plt>:
  400da0:	ff 25 02 43 20 00    	jmp    *0x204302(%rip)        # 6050a8 <memcpy@GLIBC_2.14>
  400da6:	68 12 00 00 00       	push   $0x12
  400dab:	e9 c0 fe ff ff       	jmp    400c70 <.plt>

0000000000400db0 <time@plt>:
  400db0:	ff 25 fa 42 20 00    	jmp    *0x2042fa(%rip)        # 6050b0 <time@GLIBC_2.2.5>
  400db6:	68 13 00 00 00       	push   $0x13
  400dbb:	e9 b0 fe ff ff       	jmp    400c70 <.plt>

0000000000400dc0 <random@plt>:
  400dc0:	ff 25 f2 42 20 00    	jmp    *0x2042f2(%rip)        # 6050b8 <random@GLIBC_2.2.5>
  400dc6:	68 14 00 00 00       	push   $0x14
  400dcb:	e9 a0 fe ff ff       	jmp    400c70 <.plt>

0000000000400dd0 <_IO_getc@plt>:
  400dd0:	ff 25 ea 42 20 00    	jmp    *0x2042ea(%rip)        # 6050c0 <_IO_getc@GLIBC_2.2.5>
  400dd6:	68 15 00 00 00       	push   $0x15
  400ddb:	e9 90 fe ff ff       	jmp    400c70 <.plt>

0000000000400de0 <__isoc99_sscanf@plt>:
  400de0:	ff 25 e2 42 20 00    	jmp    *0x2042e2(%rip)        # 6050c8 <__isoc99_sscanf@GLIBC_2.7>
  400de6:	68 16 00 00 00       	push   $0x16
  400deb:	e9 80 fe ff ff       	jmp    400c70 <.plt>

0000000000400df0 <munmap@plt>:
  400df0:	ff 25 da 42 20 00    	jmp    *0x2042da(%rip)        # 6050d0 <munmap@GLIBC_2.2.5>
  400df6:	68 17 00 00 00       	push   $0x17
  400dfb:	e9 70 fe ff ff       	jmp    400c70 <.plt>

0000000000400e00 <__printf_chk@plt>:
  400e00:	ff 25 d2 42 20 00    	jmp    *0x2042d2(%rip)        # 6050d8 <__printf_chk@GLIBC_2.3.4>
  400e06:	68 18 00 00 00       	push   $0x18
  400e0b:	e9 60 fe ff ff       	jmp    400c70 <.plt>

0000000000400e10 <fopen@plt>:
  400e10:	ff 25 ca 42 20 00    	jmp    *0x2042ca(%rip)        # 6050e0 <fopen@GLIBC_2.2.5>
  400e16:	68 19 00 00 00       	push   $0x19
  400e1b:	e9 50 fe ff ff       	jmp    400c70 <.plt>

0000000000400e20 <getopt@plt>:
  400e20:	ff 25 c2 42 20 00    	jmp    *0x2042c2(%rip)        # 6050e8 <getopt@GLIBC_2.2.5>
  400e26:	68 1a 00 00 00       	push   $0x1a
  400e2b:	e9 40 fe ff ff       	jmp    400c70 <.plt>

0000000000400e30 <strtoul@plt>:
  400e30:	ff 25 ba 42 20 00    	jmp    *0x2042ba(%rip)        # 6050f0 <strtoul@GLIBC_2.2.5>
  400e36:	68 1b 00 00 00       	push   $0x1b
  400e3b:	e9 30 fe ff ff       	jmp    400c70 <.plt>

0000000000400e40 <gethostname@plt>:
  400e40:	ff 25 b2 42 20 00    	jmp    *0x2042b2(%rip)        # 6050f8 <gethostname@GLIBC_2.2.5>
  400e46:	68 1c 00 00 00       	push   $0x1c
  400e4b:	e9 20 fe ff ff       	jmp    400c70 <.plt>

0000000000400e50 <exit@plt>:
  400e50:	ff 25 aa 42 20 00    	jmp    *0x2042aa(%rip)        # 605100 <exit@GLIBC_2.2.5>
  400e56:	68 1d 00 00 00       	push   $0x1d
  400e5b:	e9 10 fe ff ff       	jmp    400c70 <.plt>

0000000000400e60 <connect@plt>:
  400e60:	ff 25 a2 42 20 00    	jmp    *0x2042a2(%rip)        # 605108 <connect@GLIBC_2.2.5>
  400e66:	68 1e 00 00 00       	push   $0x1e
  400e6b:	e9 00 fe ff ff       	jmp    400c70 <.plt>

0000000000400e70 <__fprintf_chk@plt>:
  400e70:	ff 25 9a 42 20 00    	jmp    *0x20429a(%rip)        # 605110 <__fprintf_chk@GLIBC_2.3.4>
  400e76:	68 1f 00 00 00       	push   $0x1f
  400e7b:	e9 f0 fd ff ff       	jmp    400c70 <.plt>

0000000000400e80 <__sprintf_chk@plt>:
  400e80:	ff 25 92 42 20 00    	jmp    *0x204292(%rip)        # 605118 <__sprintf_chk@GLIBC_2.3.4>
  400e86:	68 20 00 00 00       	push   $0x20
  400e8b:	e9 e0 fd ff ff       	jmp    400c70 <.plt>

0000000000400e90 <socket@plt>:
  400e90:	ff 25 8a 42 20 00    	jmp    *0x20428a(%rip)        # 605120 <socket@GLIBC_2.2.5>
  400e96:	68 21 00 00 00       	push   $0x21
  400e9b:	e9 d0 fd ff ff       	jmp    400c70 <.plt>

Disassembly of section .plt.got:

0000000000400ea0 <__gmon_start__@plt>:
  400ea0:	ff 25 52 41 20 00    	jmp    *0x204152(%rip)        # 604ff8 <__gmon_start__>
  400ea6:	66 90                	xchg   %ax,%ax

Disassembly of section .text:

0000000000400eb0 <_start>:
  400eb0:	31 ed                	xor    %ebp,%ebp
  400eb2:	49 89 d1             	mov    %rdx,%r9
  400eb5:	5e                   	pop    %rsi
  400eb6:	48 89 e2             	mov    %rsp,%rdx
  400eb9:	48 83 e4 f0          	and    $0xfffffffffffffff0,%rsp
  400ebd:	50                   	push   %rax
  400ebe:	54                   	push   %rsp
  400ebf:	49 c7 c0 30 2e 40 00 	mov    $0x402e30,%r8
  400ec6:	48 c7 c1 c0 2d 40 00 	mov    $0x402dc0,%rcx
  400ecd:	48 c7 c7 b5 11 40 00 	mov    $0x4011b5,%rdi
  400ed4:	e8 77 fe ff ff       	call   400d50 <__libc_start_main@plt>
  400ed9:	f4                   	hlt    
  400eda:	66 0f 1f 44 00 00    	nopw   0x0(%rax,%rax,1)

0000000000400ee0 <deregister_tm_clones>:
  400ee0:	b8 b7 54 60 00       	mov    $0x6054b7,%eax
  400ee5:	55                   	push   %rbp
  400ee6:	48 2d b0 54 60 00    	sub    $0x6054b0,%rax
  400eec:	48 83 f8 0e          	cmp    $0xe,%rax
  400ef0:	48 89 e5             	mov    %rsp,%rbp
  400ef3:	76 1b                	jbe    400f10 <deregister_tm_clones+0x30>
  400ef5:	b8 00 00 00 00       	mov    $0x0,%eax
  400efa:	48 85 c0             	test   %rax,%rax
  400efd:	74 11                	je     400f10 <deregister_tm_clones+0x30>
  400eff:	5d                   	pop    %rbp
  400f00:	bf b0 54 60 00       	mov    $0x6054b0,%edi
  400f05:	ff e0                	jmp    *%rax
  400f07:	66 0f 1f 84 00 00 00 	nopw   0x0(%rax,%rax,1)
  400f0e:	00 00 
  400f10:	5d                   	pop    %rbp
  400f11:	c3                   	ret    
  400f12:	0f 1f 40 00          	nopl   0x0(%rax)
  400f16:	66 2e 0f 1f 84 00 00 	cs nopw 0x0(%rax,%rax,1)
  400f1d:	00 00 00 

0000000000400f20 <register_tm_clones>:
  400f20:	be b0 54 60 00       	mov    $0x6054b0,%esi
  400f25:	55                   	push   %rbp
  400f26:	48 81 ee b0 54 60 00 	sub    $0x6054b0,%rsi
  400f2d:	48 c1 fe 03          	sar    $0x3,%rsi
  400f31:	48 89 e5             	mov    %rsp,%rbp
  400f34:	48 89 f0             	mov    %rsi,%rax
  400f37:	48 c1 e8 3f          	shr    $0x3f,%rax
  400f3b:	48 01 c6             	add    %rax,%rsi
  400f3e:	48 d1 fe             	sar    %rsi
  400f41:	74 15                	je     400f58 <register_tm_clones+0x38>
  400f43:	b8 00 00 00 00       	mov    $0x0,%eax
  400f48:	48 85 c0             	test   %rax,%rax
  400f4b:	74 0b                	je     400f58 <register_tm_clones+0x38>
  400f4d:	5d                   	pop    %rbp
  400f4e:	bf b0 54 60 00       	mov    $0x6054b0,%edi
  400f53:	ff e0                	jmp    *%rax
  400f55:	0f 1f 00             	nopl   (%rax)
  400f58:	5d                   	pop    %rbp
  400f59:	c3                   	ret    
  400f5a:	66 0f 1f 44 00 00    	nopw   0x0(%rax,%rax,1)

0000000000400f60 <__do_global_dtors_aux>:
  400f60:	80 3d 81 45 20 00 00 	cmpb   $0x0,0x204581(%rip)        # 6054e8 <completed.7594>
  400f67:	75 11                	jne    400f7a <__do_global_dtors_aux+0x1a>
  400f69:	55                   	push   %rbp
  400f6a:	48 89 e5             	mov    %rsp,%rbp
  400f6d:	e8 6e ff ff ff       	call   400ee0 <deregister_tm_clones>
  400f72:	5d                   	pop    %rbp
  400f73:	c6 05 6e 45 20 00 01 	movb   $0x1,0x20456e(%rip)        # 6054e8 <completed.7594>
  400f7a:	f3 c3                	repz ret 
  400f7c:	0f 1f 40 00          	nopl   0x0(%rax)

0000000000400f80 <frame_dummy>:
  400f80:	bf 20 4e 60 00       	mov    $0x604e20,%edi
  400f85:	48 83 3f 00          	cmpq   $0x0,(%rdi)
  400f89:	75 05                	jne    400f90 <frame_dummy+0x10>
  400f8b:	eb 93                	jmp    400f20 <register_tm_clones>
  400f8d:	0f 1f 00             	nopl   (%rax)
  400f90:	b8 00 00 00 00       	mov    $0x0,%eax
  400f95:	48 85 c0             	test   %rax,%rax
  400f98:	74 f1                	je     400f8b <frame_dummy+0xb>
  400f9a:	55                   	push   %rbp
  400f9b:	48 89 e5             	mov    %rsp,%rbp
  400f9e:	ff d0                	call   *%rax
  400fa0:	5d                   	pop    %rbp
  400fa1:	e9 7a ff ff ff       	jmp    400f20 <register_tm_clones>

0000000000400fa6 <usage>:
  400fa6:	48 83 ec 08          	sub    $0x8,%rsp
  400faa:	48 89 fa             	mov    %rdi,%rdx
  400fad:	83 3d 74 45 20 00 00 	cmpl   $0x0,0x204574(%rip)        # 605528 <is_checker>
  400fb4:	74 3e                	je     400ff4 <usage+0x4e>
  400fb6:	be 48 2e 40 00       	mov    $0x402e48,%esi
  400fbb:	bf 01 00 00 00       	mov    $0x1,%edi
  400fc0:	b8 00 00 00 00       	mov    $0x0,%eax
  400fc5:	e8 36 fe ff ff       	call   400e00 <__printf_chk@plt>
  400fca:	bf 80 2e 40 00       	mov    $0x402e80,%edi
  400fcf:	e8 fc fc ff ff       	call   400cd0 <puts@plt>
  400fd4:	bf 42 30 40 00       	mov    $0x403042,%edi
  400fd9:	e8 f2 fc ff ff       	call   400cd0 <puts@plt>
  400fde:	bf a8 2e 40 00       	mov    $0x402ea8,%edi
  400fe3:	e8 e8 fc ff ff       	call   400cd0 <puts@plt>
  400fe8:	bf 5c 30 40 00       	mov    $0x40305c,%edi
  400fed:	e8 de fc ff ff       	call   400cd0 <puts@plt>
  400ff2:	eb 32                	jmp    401026 <usage+0x80>
  400ff4:	be 78 30 40 00       	mov    $0x403078,%esi
  400ff9:	bf 01 00 00 00       	mov    $0x1,%edi
  400ffe:	b8 00 00 00 00       	mov    $0x0,%eax
  401003:	e8 f8 fd ff ff       	call   400e00 <__printf_chk@plt>
  401008:	bf d0 2e 40 00       	mov    $0x402ed0,%edi
  40100d:	e8 be fc ff ff       	call   400cd0 <puts@plt>
  401012:	bf f8 2e 40 00       	mov    $0x402ef8,%edi
  401017:	e8 b4 fc ff ff       	call   400cd0 <puts@plt>
  40101c:	bf 96 30 40 00       	mov    $0x403096,%edi
  401021:	e8 aa fc ff ff       	call   400cd0 <puts@plt>
  401026:	bf 00 00 00 00       	mov    $0x0,%edi
  40102b:	e8 20 fe ff ff       	call   400e50 <exit@plt>

0000000000401030 <initialize_target>:
  401030:	55                   	push   %rbp
  401031:	53                   	push   %rbx
  401032:	48 81 ec 18 21 00 00 	sub    $0x2118,%rsp
  401039:	89 f5                	mov    %esi,%ebp
  40103b:	64 48 8b 04 25 28 00 	mov    %fs:0x28,%rax
  401042:	00 00 
  401044:	48 89 84 24 08 21 00 	mov    %rax,0x2108(%rsp)
  40104b:	00 
  40104c:	31 c0                	xor    %eax,%eax
  40104e:	89 3d c4 44 20 00    	mov    %edi,0x2044c4(%rip)        # 605518 <check_level>
  401054:	8b 3d 0e 41 20 00    	mov    0x20410e(%rip),%edi        # 605168 <target_id>
  40105a:	e8 3c 1d 00 00       	call   402d9b <gencookie>
  40105f:	89 05 bf 44 20 00    	mov    %eax,0x2044bf(%rip)        # 605524 <cookie>
  401065:	89 c7                	mov    %eax,%edi
  401067:	e8 2f 1d 00 00       	call   402d9b <gencookie>
  40106c:	89 05 ae 44 20 00    	mov    %eax,0x2044ae(%rip)        # 605520 <authkey>
  401072:	8b 05 f0 40 20 00    	mov    0x2040f0(%rip),%eax        # 605168 <target_id>
  401078:	8d 78 01             	lea    0x1(%rax),%edi
  40107b:	e8 20 fc ff ff       	call   400ca0 <srandom@plt>
  401080:	e8 3b fd ff ff       	call   400dc0 <random@plt>
  401085:	89 c7                	mov    %eax,%edi
  401087:	e8 52 03 00 00       	call   4013de <scramble>
  40108c:	89 c3                	mov    %eax,%ebx
  40108e:	85 ed                	test   %ebp,%ebp
  401090:	74 18                	je     4010aa <initialize_target+0x7a>
  401092:	bf 00 00 00 00       	mov    $0x0,%edi
  401097:	e8 14 fd ff ff       	call   400db0 <time@plt>
  40109c:	89 c7                	mov    %eax,%edi
  40109e:	e8 fd fb ff ff       	call   400ca0 <srandom@plt>
  4010a3:	e8 18 fd ff ff       	call   400dc0 <random@plt>
  4010a8:	eb 05                	jmp    4010af <initialize_target+0x7f>
  4010aa:	b8 00 00 00 00       	mov    $0x0,%eax
  4010af:	01 c3                	add    %eax,%ebx
  4010b1:	0f b7 db             	movzwl %bx,%ebx
  4010b4:	8d 04 dd 00 01 00 00 	lea    0x100(,%rbx,8),%eax
  4010bb:	89 c0                	mov    %eax,%eax
  4010bd:	48 89 05 dc 43 20 00 	mov    %rax,0x2043dc(%rip)        # 6054a0 <buf_offset>
  4010c4:	c6 05 7d 50 20 00 63 	movb   $0x63,0x20507d(%rip)        # 606148 <target_prefix>
  4010cb:	83 3d d6 43 20 00 00 	cmpl   $0x0,0x2043d6(%rip)        # 6054a8 <notify>
  4010d2:	0f 84 bb 00 00 00    	je     401193 <initialize_target+0x163>
  4010d8:	83 3d 49 44 20 00 00 	cmpl   $0x0,0x204449(%rip)        # 605528 <is_checker>
  4010df:	0f 85 ae 00 00 00    	jne    401193 <initialize_target+0x163>
  4010e5:	be 00 01 00 00       	mov    $0x100,%esi
  4010ea:	48 89 e7             	mov    %rsp,%rdi
  4010ed:	e8 4e fd ff ff       	call   400e40 <gethostname@plt>
  4010f2:	85 c0                	test   %eax,%eax
  4010f4:	74 25                	je     40111b <initialize_target+0xeb>
  4010f6:	bf 28 2f 40 00       	mov    $0x402f28,%edi
  4010fb:	e8 d0 fb ff ff       	call   400cd0 <puts@plt>
  401100:	bf 08 00 00 00       	mov    $0x8,%edi
  401105:	e8 46 fd ff ff       	call   400e50 <exit@plt>
  40110a:	48 89 e6             	mov    %rsp,%rsi
  40110d:	e8 6e fb ff ff       	call   400c80 <strcasecmp@plt>
  401112:	85 c0                	test   %eax,%eax
  401114:	74 21                	je     401137 <initialize_target+0x107>
  401116:	83 c3 01             	add    $0x1,%ebx
  401119:	eb 05                	jmp    401120 <initialize_target+0xf0>
  40111b:	bb 00 00 00 00       	mov    $0x0,%ebx
  401120:	48 63 c3             	movslq %ebx,%rax
  401123:	48 8b 3c c5 80 51 60 	mov    0x605180(,%rax,8),%rdi
  40112a:	00 
  40112b:	48 85 ff             	test   %rdi,%rdi
  40112e:	75 da                	jne    40110a <initialize_target+0xda>
  401130:	b8 00 00 00 00       	mov    $0x0,%eax
  401135:	eb 05                	jmp    40113c <initialize_target+0x10c>
  401137:	b8 01 00 00 00       	mov    $0x1,%eax
  40113c:	85 c0                	test   %eax,%eax
  40113e:	75 1c                	jne    40115c <initialize_target+0x12c>
  401140:	48 89 e2             	mov    %rsp,%rdx
  401143:	be 60 2f 40 00       	mov    $0x402f60,%esi
  401148:	bf 01 00 00 00       	mov    $0x1,%edi
  40114d:	e8 ae fc ff ff       	call   400e00 <__printf_chk@plt>
  401152:	bf 08 00 00 00       	mov    $0x8,%edi
  401157:	e8 f4 fc ff ff       	call   400e50 <exit@plt>
  40115c:	48 8d bc 24 00 01 00 	lea    0x100(%rsp),%rdi
  401163:	00 
  401164:	e8 9c 19 00 00       	call   402b05 <init_driver>
  401169:	85 c0                	test   %eax,%eax
  40116b:	79 26                	jns    401193 <initialize_target+0x163>
  40116d:	48 8d 94 24 00 01 00 	lea    0x100(%rsp),%rdx
  401174:	00 
  401175:	be a0 2f 40 00       	mov    $0x402fa0,%esi
  40117a:	bf 01 00 00 00       	mov    $0x1,%edi
  40117f:	b8 00 00 00 00       	mov    $0x0,%eax
  401184:	e8 77 fc ff ff       	call   400e00 <__printf_chk@plt>
  401189:	bf 08 00 00 00       	mov    $0x8,%edi
  40118e:	e8 bd fc ff ff       	call   400e50 <exit@plt>
  401193:	48 8b 84 24 08 21 00 	mov    0x2108(%rsp),%rax
  40119a:	00 
  40119b:	64 48 33 04 25 28 00 	xor    %fs:0x28,%rax
  4011a2:	00 00 
  4011a4:	74 05                	je     4011ab <initialize_target+0x17b>
  4011a6:	e8 45 fb ff ff       	call   400cf0 <__stack_chk_fail@plt>
  4011ab:	48 81 c4 18 21 00 00 	add    $0x2118,%rsp
  4011b2:	5b                   	pop    %rbx
  4011b3:	5d                   	pop    %rbp
  4011b4:	c3                   	ret    

00000000004011b5 <main>:
  4011b5:	41 56                	push   %r14
  4011b7:	41 55                	push   %r13
  4011b9:	41 54                	push   %r12
  4011bb:	55                   	push   %rbp
  4011bc:	53                   	push   %rbx
  4011bd:	89 fd                	mov    %edi,%ebp
  4011bf:	48 89 f3             	mov    %rsi,%rbx
  4011c2:	be 8b 1e 40 00       	mov    $0x401e8b,%esi
  4011c7:	bf 0b 00 00 00       	mov    $0xb,%edi
  4011cc:	e8 8f fb ff ff       	call   400d60 <signal@plt>
  4011d1:	be 3d 1e 40 00       	mov    $0x401e3d,%esi
  4011d6:	bf 07 00 00 00       	mov    $0x7,%edi
  4011db:	e8 80 fb ff ff       	call   400d60 <signal@plt>
  4011e0:	be d9 1e 40 00       	mov    $0x401ed9,%esi
  4011e5:	bf 04 00 00 00       	mov    $0x4,%edi
  4011ea:	e8 71 fb ff ff       	call   400d60 <signal@plt>
  4011ef:	83 3d 32 43 20 00 00 	cmpl   $0x0,0x204332(%rip)        # 605528 <is_checker>
  4011f6:	74 21                	je     401219 <main+0x64>
  4011f8:	be 27 1f 40 00       	mov    $0x401f27,%esi
  4011fd:	bf 0e 00 00 00       	mov    $0xe,%edi
  401202:	e8 59 fb ff ff       	call   400d60 <signal@plt>
  401207:	bf 05 00 00 00       	mov    $0x5,%edi
  40120c:	e8 0f fb ff ff       	call   400d20 <alarm@plt>
  401211:	41 bc b4 30 40 00    	mov    $0x4030b4,%r12d
  401217:	eb 06                	jmp    40121f <main+0x6a>
  401219:	41 bc af 30 40 00    	mov    $0x4030af,%r12d
  40121f:	48 8b 05 9a 42 20 00 	mov    0x20429a(%rip),%rax        # 6054c0 <stdin@GLIBC_2.2.5>
  401226:	48 89 05 e3 42 20 00 	mov    %rax,0x2042e3(%rip)        # 605510 <infile>
  40122d:	41 be 00 00 00 00    	mov    $0x0,%r14d
  401233:	41 bd 00 00 00 00    	mov    $0x0,%r13d
  401239:	e9 9c 00 00 00       	jmp    4012da <main+0x125>
  40123e:	83 e8 61             	sub    $0x61,%eax
  401241:	3c 10                	cmp    $0x10,%al
  401243:	77 76                	ja     4012bb <main+0x106>
  401245:	0f b6 c0             	movzbl %al,%eax
  401248:	ff 24 c5 08 31 40 00 	jmp    *0x403108(,%rax,8)
  40124f:	48 8b 3b             	mov    (%rbx),%rdi
  401252:	e8 4f fd ff ff       	call   400fa6 <usage>
  401257:	be bc 34 40 00       	mov    $0x4034bc,%esi
  40125c:	48 8b 3d 65 42 20 00 	mov    0x204265(%rip),%rdi        # 6054c8 <optarg@GLIBC_2.2.5>
  401263:	e8 a8 fb ff ff       	call   400e10 <fopen@plt>
  401268:	48 89 05 a1 42 20 00 	mov    %rax,0x2042a1(%rip)        # 605510 <infile>
  40126f:	48 85 c0             	test   %rax,%rax
  401272:	75 66                	jne    4012da <main+0x125>
  401274:	e9 35 01 00 00       	jmp    4013ae <main+0x1f9>
  401279:	ba 10 00 00 00       	mov    $0x10,%edx
  40127e:	be 00 00 00 00       	mov    $0x0,%esi
  401283:	48 8b 3d 3e 42 20 00 	mov    0x20423e(%rip),%rdi        # 6054c8 <optarg@GLIBC_2.2.5>
  40128a:	e8 a1 fb ff ff       	call   400e30 <strtoul@plt>
  40128f:	41 89 c5             	mov    %eax,%r13d
  401292:	eb 46                	jmp    4012da <main+0x125>
  401294:	ba 0a 00 00 00       	mov    $0xa,%edx
  401299:	be 00 00 00 00       	mov    $0x0,%esi
  40129e:	48 8b 3d 23 42 20 00 	mov    0x204223(%rip),%rdi        # 6054c8 <optarg@GLIBC_2.2.5>
  4012a5:	e8 e6 fa ff ff       	call   400d90 <strtol@plt>
  4012aa:	41 89 c6             	mov    %eax,%r14d
  4012ad:	eb 2b                	jmp    4012da <main+0x125>
  4012af:	c7 05 ef 41 20 00 00 	movl   $0x0,0x2041ef(%rip)        # 6054a8 <notify>
  4012b6:	00 00 00 
  4012b9:	eb 1f                	jmp    4012da <main+0x125>
  4012bb:	0f be d2             	movsbl %dl,%edx
  4012be:	be d9 30 40 00       	mov    $0x4030d9,%esi
  4012c3:	bf 01 00 00 00       	mov    $0x1,%edi
  4012c8:	b8 00 00 00 00       	mov    $0x0,%eax
  4012cd:	e8 2e fb ff ff       	call   400e00 <__printf_chk@plt>
  4012d2:	48 8b 3b             	mov    (%rbx),%rdi
  4012d5:	e8 cc fc ff ff       	call   400fa6 <usage>
  4012da:	4c 89 e2             	mov    %r12,%rdx
  4012dd:	48 89 de             	mov    %rbx,%rsi
  4012e0:	89 ef                	mov    %ebp,%edi
  4012e2:	e8 39 fb ff ff       	call   400e20 <getopt@plt>
  4012e7:	89 c2                	mov    %eax,%edx
  4012e9:	3c ff                	cmp    $0xff,%al
  4012eb:	0f 85 4d ff ff ff    	jne    40123e <main+0x89>
  4012f1:	be 00 00 00 00       	mov    $0x0,%esi
  4012f6:	44 89 f7             	mov    %r14d,%edi
  4012f9:	e8 32 fd ff ff       	call   401030 <initialize_target>
  4012fe:	83 3d 23 42 20 00 00 	cmpl   $0x0,0x204223(%rip)        # 605528 <is_checker>
  401305:	74 2a                	je     401331 <main+0x17c>
  401307:	44 3b 2d 12 42 20 00 	cmp    0x204212(%rip),%r13d        # 605520 <authkey>
  40130e:	74 21                	je     401331 <main+0x17c>
  401310:	44 89 ea             	mov    %r13d,%edx
  401313:	be c8 2f 40 00       	mov    $0x402fc8,%esi
  401318:	bf 01 00 00 00       	mov    $0x1,%edi
  40131d:	b8 00 00 00 00       	mov    $0x0,%eax
  401322:	e8 d9 fa ff ff       	call   400e00 <__printf_chk@plt>
  401327:	b8 00 00 00 00       	mov    $0x0,%eax
  40132c:	e8 a8 07 00 00       	call   401ad9 <check_fail>
  401331:	8b 15 ed 41 20 00    	mov    0x2041ed(%rip),%edx        # 605524 <cookie>
  401337:	be ec 30 40 00       	mov    $0x4030ec,%esi
  40133c:	bf 01 00 00 00       	mov    $0x1,%edi
  401341:	b8 00 00 00 00       	mov    $0x0,%eax
  401346:	e8 b5 fa ff ff       	call   400e00 <__printf_chk@plt>
  40134b:	48 8b 05 6e 41 20 00 	mov    0x20416e(%rip),%rax        # 6054c0 <stdin@GLIBC_2.2.5>
  401352:	48 39 05 b7 41 20 00 	cmp    %rax,0x2041b7(%rip)        # 605510 <infile>
  401359:	75 14                	jne    40136f <main+0x1ba>
  40135b:	be fa 30 40 00       	mov    $0x4030fa,%esi
  401360:	bf 01 00 00 00       	mov    $0x1,%edi
  401365:	b8 00 00 00 00       	mov    $0x0,%eax
  40136a:	e8 91 fa ff ff       	call   400e00 <__printf_chk@plt>
  40136f:	48 8b 3d 2a 41 20 00 	mov    0x20412a(%rip),%rdi        # 6054a0 <buf_offset>
  401376:	e8 61 0c 00 00       	call   401fdc <stable_launch>
  40137b:	83 3d a6 41 20 00 00 	cmpl   $0x0,0x2041a6(%rip)        # 605528 <is_checker>
  401382:	74 16                	je     40139a <main+0x1e5>
  401384:	bf f8 2f 40 00       	mov    $0x402ff8,%edi
  401389:	e8 42 f9 ff ff       	call   400cd0 <puts@plt>
  40138e:	b8 00 00 00 00       	mov    $0x0,%eax
  401393:	e8 41 07 00 00       	call   401ad9 <check_fail>
  401398:	eb 0a                	jmp    4013a4 <main+0x1ef>
  40139a:	bf 20 30 40 00       	mov    $0x403020,%edi
  40139f:	e8 2c f9 ff ff       	call   400cd0 <puts@plt>
  4013a4:	bf 01 00 00 00       	mov    $0x1,%edi
  4013a9:	e8 a2 fa ff ff       	call   400e50 <exit@plt>
  4013ae:	48 8b 0d 13 41 20 00 	mov    0x204113(%rip),%rcx        # 6054c8 <optarg@GLIBC_2.2.5>
  4013b5:	ba bc 30 40 00       	mov    $0x4030bc,%edx
  4013ba:	be 01 00 00 00       	mov    $0x1,%esi
  4013bf:	48 8b 3d 1a 41 20 00 	mov    0x20411a(%rip),%rdi        # 6054e0 <stderr@GLIBC_2.2.5>
  4013c6:	b8 00 00 00 00       	mov    $0x0,%eax
  4013cb:	e8 a0 fa ff ff       	call   400e70 <__fprintf_chk@plt>
  4013d0:	b8 01 00 00 00       	mov    $0x1,%eax
  4013d5:	5b                   	pop    %rbx
  4013d6:	5d                   	pop    %rbp
  4013d7:	41 5c                	pop    %r12
  4013d9:	41 5d                	pop    %r13
  4013db:	41 5e                	pop    %r14
  4013dd:	c3                   	ret    

00000000004013de <scramble>:
  4013de:	48 83 ec 38          	sub    $0x38,%rsp
  4013e2:	64 48 8b 04 25 28 00 	mov    %fs:0x28,%rax
  4013e9:	00 00 
  4013eb:	48 89 44 24 28       	mov    %rax,0x28(%rsp)
  4013f0:	31 c0                	xor    %eax,%eax
  4013f2:	eb 10                	jmp    401404 <scramble+0x26>
  4013f4:	69 d0 d6 4b 00 00    	imul   $0x4bd6,%eax,%edx
  4013fa:	01 fa                	add    %edi,%edx
  4013fc:	89 c1                	mov    %eax,%ecx
  4013fe:	89 14 8c             	mov    %edx,(%rsp,%rcx,4)
  401401:	83 c0 01             	add    $0x1,%eax
  401404:	83 f8 09             	cmp    $0x9,%eax
  401407:	76 eb                	jbe    4013f4 <scramble+0x16>
  401409:	8b 44 24 0c          	mov    0xc(%rsp),%eax
  40140d:	69 c0 ba 4b 00 00    	imul   $0x4bba,%eax,%eax
  401413:	89 44 24 0c          	mov    %eax,0xc(%rsp)
  401417:	8b 44 24 08          	mov    0x8(%rsp),%eax
  40141b:	69 c0 82 18 00 00    	imul   $0x1882,%eax,%eax
  401421:	89 44 24 08          	mov    %eax,0x8(%rsp)
  401425:	8b 44 24 24          	mov    0x24(%rsp),%eax
  401429:	69 c0 c8 6e 00 00    	imul   $0x6ec8,%eax,%eax
  40142f:	89 44 24 24          	mov    %eax,0x24(%rsp)
  401433:	8b 44 24 1c          	mov    0x1c(%rsp),%eax
  401437:	69 c0 12 ed 00 00    	imul   $0xed12,%eax,%eax
  40143d:	89 44 24 1c          	mov    %eax,0x1c(%rsp)
  401441:	8b 44 24 14          	mov    0x14(%rsp),%eax
  401445:	69 c0 09 22 00 00    	imul   $0x2209,%eax,%eax
  40144b:	89 44 24 14          	mov    %eax,0x14(%rsp)
  40144f:	8b 44 24 20          	mov    0x20(%rsp),%eax
  401453:	69 c0 85 bf 00 00    	imul   $0xbf85,%eax,%eax
  401459:	89 44 24 20          	mov    %eax,0x20(%rsp)
  40145d:	8b 44 24 10          	mov    0x10(%rsp),%eax
  401461:	69 c0 a1 b1 00 00    	imul   $0xb1a1,%eax,%eax
  401467:	89 44 24 10          	mov    %eax,0x10(%rsp)
  40146b:	8b 44 24 14          	mov    0x14(%rsp),%eax
  40146f:	69 c0 e2 b0 00 00    	imul   $0xb0e2,%eax,%eax
  401475:	89 44 24 14          	mov    %eax,0x14(%rsp)
  401479:	8b 44 24 08          	mov    0x8(%rsp),%eax
  40147d:	69 c0 4e 33 00 00    	imul   $0x334e,%eax,%eax
  401483:	89 44 24 08          	mov    %eax,0x8(%rsp)
  401487:	8b 44 24 04          	mov    0x4(%rsp),%eax
  40148b:	69 c0 f8 5b 00 00    	imul   $0x5bf8,%eax,%eax
  401491:	89 44 24 04          	mov    %eax,0x4(%rsp)
  401495:	8b 44 24 08          	mov    0x8(%rsp),%eax
  401499:	69 c0 d9 5f 00 00    	imul   $0x5fd9,%eax,%eax
  40149f:	89 44 24 08          	mov    %eax,0x8(%rsp)
  4014a3:	8b 04 24             	mov    (%rsp),%eax
  4014a6:	69 c0 49 5a 00 00    	imul   $0x5a49,%eax,%eax
  4014ac:	89 04 24             	mov    %eax,(%rsp)
  4014af:	8b 44 24 10          	mov    0x10(%rsp),%eax
  4014b3:	69 c0 21 47 00 00    	imul   $0x4721,%eax,%eax
  4014b9:	89 44 24 10          	mov    %eax,0x10(%rsp)
  4014bd:	8b 44 24 0c          	mov    0xc(%rsp),%eax
  4014c1:	69 c0 0a 90 00 00    	imul   $0x900a,%eax,%eax
  4014c7:	89 44 24 0c          	mov    %eax,0xc(%rsp)
  4014cb:	8b 44 24 14          	mov    0x14(%rsp),%eax
  4014cf:	69 c0 30 b6 00 00    	imul   $0xb630,%eax,%eax
  4014d5:	89 44 24 14          	mov    %eax,0x14(%rsp)
  4014d9:	8b 44 24 18          	mov    0x18(%rsp),%eax
  4014dd:	69 c0 77 79 00 00    	imul   $0x7977,%eax,%eax
  4014e3:	89 44 24 18          	mov    %eax,0x18(%rsp)
  4014e7:	8b 44 24 04          	mov    0x4(%rsp),%eax
  4014eb:	69 c0 f3 8a 00 00    	imul   $0x8af3,%eax,%eax
  4014f1:	89 44 24 04          	mov    %eax,0x4(%rsp)
  4014f5:	8b 44 24 24          	mov    0x24(%rsp),%eax
  4014f9:	69 c0 26 0d 00 00    	imul   $0xd26,%eax,%eax
  4014ff:	89 44 24 24          	mov    %eax,0x24(%rsp)
  401503:	8b 44 24 20          	mov    0x20(%rsp),%eax
  401507:	69 c0 41 55 00 00    	imul   $0x5541,%eax,%eax
  40150d:	89 44 24 20          	mov    %eax,0x20(%rsp)
  401511:	8b 44 24 20          	mov    0x20(%rsp),%eax
  401515:	69 c0 7e 14 00 00    	imul   $0x147e,%eax,%eax
  40151b:	89 44 24 20          	mov    %eax,0x20(%rsp)
  40151f:	8b 44 24 0c          	mov    0xc(%rsp),%eax
  401523:	69 c0 7f 59 00 00    	imul   $0x597f,%eax,%eax
  401529:	89 44 24 0c          	mov    %eax,0xc(%rsp)
  40152d:	8b 44 24 24          	mov    0x24(%rsp),%eax
  401531:	69 c0 5c 56 00 00    	imul   $0x565c,%eax,%eax
  401537:	89 44 24 24          	mov    %eax,0x24(%rsp)
  40153b:	8b 44 24 10          	mov    0x10(%rsp),%eax
  40153f:	69 c0 ca f5 00 00    	imul   $0xf5ca,%eax,%eax
  401545:	89 44 24 10          	mov    %eax,0x10(%rsp)
  401549:	8b 44 24 20          	mov    0x20(%rsp),%eax
  40154d:	69 c0 a8 8f 00 00    	imul   $0x8fa8,%eax,%eax
  401553:	89 44 24 20          	mov    %eax,0x20(%rsp)
  401557:	8b 44 24 04          	mov    0x4(%rsp),%eax
  40155b:	69 c0 fc 4c 00 00    	imul   $0x4cfc,%eax,%eax
  401561:	89 44 24 04          	mov    %eax,0x4(%rsp)
  401565:	8b 44 24 08          	mov    0x8(%rsp),%eax
  401569:	69 c0 79 86 00 00    	imul   $0x8679,%eax,%eax
  40156f:	89 44 24 08          	mov    %eax,0x8(%rsp)
  401573:	8b 44 24 10          	mov    0x10(%rsp),%eax
  401577:	69 c0 bf c5 00 00    	imul   $0xc5bf,%eax,%eax
  40157d:	89 44 24 10          	mov    %eax,0x10(%rsp)
  401581:	8b 44 24 08          	mov    0x8(%rsp),%eax
  401585:	89 c2                	mov    %eax,%edx
  401587:	c1 e2 0e             	shl    $0xe,%edx
  40158a:	8d 04 42             	lea    (%rdx,%rax,2),%eax
  40158d:	89 44 24 08          	mov    %eax,0x8(%rsp)
  401591:	8b 44 24 20          	mov    0x20(%rsp),%eax
  401595:	69 c0 19 a2 00 00    	imul   $0xa219,%eax,%eax
  40159b:	89 44 24 20          	mov    %eax,0x20(%rsp)
  40159f:	8b 44 24 24          	mov    0x24(%rsp),%eax
  4015a3:	69 c0 81 3a 00 00    	imul   $0x3a81,%eax,%eax
  4015a9:	89 44 24 24          	mov    %eax,0x24(%rsp)
  4015ad:	8b 44 24 08          	mov    0x8(%rsp),%eax
  4015b1:	69 c0 58 5f 00 00    	imul   $0x5f58,%eax,%eax
  4015b7:	89 44 24 08          	mov    %eax,0x8(%rsp)
  4015bb:	8b 44 24 14          	mov    0x14(%rsp),%eax
  4015bf:	69 c0 33 5a 00 00    	imul   $0x5a33,%eax,%eax
  4015c5:	89 44 24 14          	mov    %eax,0x14(%rsp)
  4015c9:	8b 44 24 18          	mov    0x18(%rsp),%eax
  4015cd:	69 c0 f2 45 00 00    	imul   $0x45f2,%eax,%eax
  4015d3:	89 44 24 18          	mov    %eax,0x18(%rsp)
  4015d7:	8b 44 24 1c          	mov    0x1c(%rsp),%eax
  4015db:	69 c0 06 e4 00 00    	imul   $0xe406,%eax,%eax
  4015e1:	89 44 24 1c          	mov    %eax,0x1c(%rsp)
  4015e5:	8b 44 24 08          	mov    0x8(%rsp),%eax
  4015e9:	69 c0 92 61 00 00    	imul   $0x6192,%eax,%eax
  4015ef:	89 44 24 08          	mov    %eax,0x8(%rsp)
  4015f3:	8b 44 24 10          	mov    0x10(%rsp),%eax
  4015f7:	69 c0 7d 12 00 00    	imul   $0x127d,%eax,%eax
  4015fd:	89 44 24 10          	mov    %eax,0x10(%rsp)
  401601:	8b 44 24 14          	mov    0x14(%rsp),%eax
  401605:	69 c0 88 cc 00 00    	imul   $0xcc88,%eax,%eax
  40160b:	89 44 24 14          	mov    %eax,0x14(%rsp)
  40160f:	8b 44 24 18          	mov    0x18(%rsp),%eax
  401613:	69 c0 33 c6 00 00    	imul   $0xc633,%eax,%eax
  401619:	89 44 24 18          	mov    %eax,0x18(%rsp)
  40161d:	8b 44 24 24          	mov    0x24(%rsp),%eax
  401621:	69 c0 17 70 00 00    	imul   $0x7017,%eax,%eax
  401627:	89 44 24 24          	mov    %eax,0x24(%rsp)
  40162b:	8b 44 24 20          	mov    0x20(%rsp),%eax
  40162f:	69 c0 6a eb 00 00    	imul   $0xeb6a,%eax,%eax
  401635:	89 44 24 20          	mov    %eax,0x20(%rsp)
  401639:	8b 44 24 1c          	mov    0x1c(%rsp),%eax
  40163d:	69 c0 7c 41 00 00    	imul   $0x417c,%eax,%eax
  401643:	89 44 24 1c          	mov    %eax,0x1c(%rsp)
  401647:	8b 44 24 24          	mov    0x24(%rsp),%eax
  40164b:	69 c0 ea 69 00 00    	imul   $0x69ea,%eax,%eax
  401651:	89 44 24 24          	mov    %eax,0x24(%rsp)
  401655:	8b 44 24 10          	mov    0x10(%rsp),%eax
  401659:	69 c0 a5 52 00 00    	imul   $0x52a5,%eax,%eax
  40165f:	89 44 24 10          	mov    %eax,0x10(%rsp)
  401663:	8b 44 24 10          	mov    0x10(%rsp),%eax
  401667:	69 c0 1b 14 00 00    	imul   $0x141b,%eax,%eax
  40166d:	89 44 24 10          	mov    %eax,0x10(%rsp)
  401671:	8b 44 24 20          	mov    0x20(%rsp),%eax
  401675:	69 c0 f8 79 00 00    	imul   $0x79f8,%eax,%eax
  40167b:	89 44 24 20          	mov    %eax,0x20(%rsp)
  40167f:	8b 44 24 20          	mov    0x20(%rsp),%eax
  401683:	69 c0 07 4d 00 00    	imul   $0x4d07,%eax,%eax
  401689:	89 44 24 20          	mov    %eax,0x20(%rsp)
  40168d:	8b 44 24 0c          	mov    0xc(%rsp),%eax
  401691:	69 c0 95 02 00 00    	imul   $0x295,%eax,%eax
  401697:	89 44 24 0c          	mov    %eax,0xc(%rsp)
  40169b:	8b 44 24 24          	mov    0x24(%rsp),%eax
  40169f:	69 c0 9b c3 00 00    	imul   $0xc39b,%eax,%eax
  4016a5:	89 44 24 24          	mov    %eax,0x24(%rsp)
  4016a9:	8b 44 24 24          	mov    0x24(%rsp),%eax
  4016ad:	69 c0 95 0e 00 00    	imul   $0xe95,%eax,%eax
  4016b3:	89 44 24 24          	mov    %eax,0x24(%rsp)
  4016b7:	8b 44 24 1c          	mov    0x1c(%rsp),%eax
  4016bb:	69 c0 ba e3 00 00    	imul   $0xe3ba,%eax,%eax
  4016c1:	89 44 24 1c          	mov    %eax,0x1c(%rsp)
  4016c5:	8b 44 24 14          	mov    0x14(%rsp),%eax
  4016c9:	69 c0 26 a0 00 00    	imul   $0xa026,%eax,%eax
  4016cf:	89 44 24 14          	mov    %eax,0x14(%rsp)
  4016d3:	8b 44 24 08          	mov    0x8(%rsp),%eax
  4016d7:	69 c0 39 2b 00 00    	imul   $0x2b39,%eax,%eax
  4016dd:	89 44 24 08          	mov    %eax,0x8(%rsp)
  4016e1:	8b 44 24 18          	mov    0x18(%rsp),%eax
  4016e5:	69 c0 10 5f 00 00    	imul   $0x5f10,%eax,%eax
  4016eb:	89 44 24 18          	mov    %eax,0x18(%rsp)
  4016ef:	8b 44 24 0c          	mov    0xc(%rsp),%eax
  4016f3:	69 c0 00 2f 00 00    	imul   $0x2f00,%eax,%eax
  4016f9:	89 44 24 0c          	mov    %eax,0xc(%rsp)
  4016fd:	8b 44 24 18          	mov    0x18(%rsp),%eax
  401701:	69 c0 48 47 00 00    	imul   $0x4748,%eax,%eax
  401707:	89 44 24 18          	mov    %eax,0x18(%rsp)
  40170b:	8b 04 24             	mov    (%rsp),%eax
  40170e:	69 c0 3b 8c 00 00    	imul   $0x8c3b,%eax,%eax
  401714:	89 04 24             	mov    %eax,(%rsp)
  401717:	8b 44 24 0c          	mov    0xc(%rsp),%eax
  40171b:	69 c0 4d 8c 00 00    	imul   $0x8c4d,%eax,%eax
  401721:	89 44 24 0c          	mov    %eax,0xc(%rsp)
  401725:	8b 44 24 18          	mov    0x18(%rsp),%eax
  401729:	8d 14 c0             	lea    (%rax,%rax,8),%edx
  40172c:	89 d0                	mov    %edx,%eax
  40172e:	c1 e0 0c             	shl    $0xc,%eax
  401731:	89 44 24 18          	mov    %eax,0x18(%rsp)
  401735:	8b 44 24 14          	mov    0x14(%rsp),%eax
  401739:	69 c0 11 a0 00 00    	imul   $0xa011,%eax,%eax
  40173f:	89 44 24 14          	mov    %eax,0x14(%rsp)
  401743:	8b 44 24 08          	mov    0x8(%rsp),%eax
  401747:	69 c0 b1 d3 00 00    	imul   $0xd3b1,%eax,%eax
  40174d:	89 44 24 08          	mov    %eax,0x8(%rsp)
  401751:	8b 44 24 20          	mov    0x20(%rsp),%eax
  401755:	69 c0 b8 f2 00 00    	imul   $0xf2b8,%eax,%eax
  40175b:	89 44 24 20          	mov    %eax,0x20(%rsp)
  40175f:	8b 44 24 24          	mov    0x24(%rsp),%eax
  401763:	69 c0 5a f3 00 00    	imul   $0xf35a,%eax,%eax
  401769:	89 44 24 24          	mov    %eax,0x24(%rsp)
  40176d:	8b 44 24 18          	mov    0x18(%rsp),%eax
  401771:	69 c0 f3 c7 00 00    	imul   $0xc7f3,%eax,%eax
  401777:	89 44 24 18          	mov    %eax,0x18(%rsp)
  40177b:	8b 44 24 08          	mov    0x8(%rsp),%eax
  40177f:	69 c0 d4 3d 00 00    	imul   $0x3dd4,%eax,%eax
  401785:	89 44 24 08          	mov    %eax,0x8(%rsp)
  401789:	8b 44 24 20          	mov    0x20(%rsp),%eax
  40178d:	69 c0 97 5e 00 00    	imul   $0x5e97,%eax,%eax
  401793:	89 44 24 20          	mov    %eax,0x20(%rsp)
  401797:	8b 44 24 0c          	mov    0xc(%rsp),%eax
  40179b:	69 c0 b0 46 00 00    	imul   $0x46b0,%eax,%eax
  4017a1:	89 44 24 0c          	mov    %eax,0xc(%rsp)
  4017a5:	8b 44 24 14          	mov    0x14(%rsp),%eax
  4017a9:	69 c0 c5 17 00 00    	imul   $0x17c5,%eax,%eax
  4017af:	89 44 24 14          	mov    %eax,0x14(%rsp)
  4017b3:	8b 44 24 14          	mov    0x14(%rsp),%eax
  4017b7:	69 c0 6b 6b 00 00    	imul   $0x6b6b,%eax,%eax
  4017bd:	89 44 24 14          	mov    %eax,0x14(%rsp)
  4017c1:	8b 44 24 1c          	mov    0x1c(%rsp),%eax
  4017c5:	69 c0 56 63 00 00    	imul   $0x6356,%eax,%eax
  4017cb:	89 44 24 1c          	mov    %eax,0x1c(%rsp)
  4017cf:	8b 44 24 08          	mov    0x8(%rsp),%eax
  4017d3:	69 c0 fc 45 00 00    	imul   $0x45fc,%eax,%eax
  4017d9:	89 44 24 08          	mov    %eax,0x8(%rsp)
  4017dd:	8b 44 24 08          	mov    0x8(%rsp),%eax
  4017e1:	69 c0 d5 b4 00 00    	imul   $0xb4d5,%eax,%eax
  4017e7:	89 44 24 08          	mov    %eax,0x8(%rsp)
  4017eb:	8b 04 24             	mov    (%rsp),%eax
  4017ee:	69 c0 62 33 00 00    	imul   $0x3362,%eax,%eax
  4017f4:	89 04 24             	mov    %eax,(%rsp)
  4017f7:	8b 44 24 18          	mov    0x18(%rsp),%eax
  4017fb:	69 c0 5d c8 00 00    	imul   $0xc85d,%eax,%eax
  401801:	89 44 24 18          	mov    %eax,0x18(%rsp)
  401805:	8b 44 24 1c          	mov    0x1c(%rsp),%eax
  401809:	69 c0 15 20 00 00    	imul   $0x2015,%eax,%eax
  40180f:	89 44 24 1c          	mov    %eax,0x1c(%rsp)
  401813:	8b 44 24 08          	mov    0x8(%rsp),%eax
  401817:	69 c0 7e 67 00 00    	imul   $0x677e,%eax,%eax
  40181d:	89 44 24 08          	mov    %eax,0x8(%rsp)
  401821:	8b 04 24             	mov    (%rsp),%eax
  401824:	69 c0 79 82 00 00    	imul   $0x8279,%eax,%eax
  40182a:	89 04 24             	mov    %eax,(%rsp)
  40182d:	8b 44 24 0c          	mov    0xc(%rsp),%eax
  401831:	69 c0 7e 14 00 00    	imul   $0x147e,%eax,%eax
  401837:	89 44 24 0c          	mov    %eax,0xc(%rsp)
  40183b:	8b 44 24 08          	mov    0x8(%rsp),%eax
  40183f:	69 c0 83 4f 00 00    	imul   $0x4f83,%eax,%eax
  401845:	89 44 24 08          	mov    %eax,0x8(%rsp)
  401849:	8b 44 24 24          	mov    0x24(%rsp),%eax
  40184d:	69 c0 c9 2c 00 00    	imul   $0x2cc9,%eax,%eax
  401853:	89 44 24 24          	mov    %eax,0x24(%rsp)
  401857:	8b 44 24 04          	mov    0x4(%rsp),%eax
  40185b:	69 c0 fa b2 00 00    	imul   $0xb2fa,%eax,%eax
  401861:	89 44 24 04          	mov    %eax,0x4(%rsp)
  401865:	ba 00 00 00 00       	mov    $0x0,%edx
  40186a:	b8 00 00 00 00       	mov    $0x0,%eax
  40186f:	eb 0a                	jmp    40187b <scramble+0x49d>
  401871:	89 d1                	mov    %edx,%ecx
  401873:	8b 0c 8c             	mov    (%rsp,%rcx,4),%ecx
  401876:	01 c8                	add    %ecx,%eax
  401878:	83 c2 01             	add    $0x1,%edx
  40187b:	83 fa 09             	cmp    $0x9,%edx
  40187e:	76 f1                	jbe    401871 <scramble+0x493>
  401880:	48 8b 74 24 28       	mov    0x28(%rsp),%rsi
  401885:	64 48 33 34 25 28 00 	xor    %fs:0x28,%rsi
  40188c:	00 00 
  40188e:	74 05                	je     401895 <scramble+0x4b7>
  401890:	e8 5b f4 ff ff       	call   400cf0 <__stack_chk_fail@plt>
  401895:	48 83 c4 38          	add    $0x38,%rsp
  401899:	c3                   	ret    

000000000040189a <getbuf>:
  40189a:	48 83 ec 28          	sub    $0x28,%rsp
  40189e:	48 89 e7             	mov    %rsp,%rdi
  4018a1:	e8 68 02 00 00       	call   401b0e <Gets>
  4018a6:	b8 01 00 00 00       	mov    $0x1,%eax
  4018ab:	48 83 c4 28          	add    $0x28,%rsp
  4018af:	c3                   	ret    

00000000004018b0 <touch1>:
  4018b0:	48 83 ec 08          	sub    $0x8,%rsp
  4018b4:	c7 05 5e 3c 20 00 01 	movl   $0x1,0x203c5e(%rip)        # 60551c <vlevel>
  4018bb:	00 00 00 
  4018be:	bf 39 33 40 00       	mov    $0x403339,%edi
  4018c3:	e8 08 f4 ff ff       	call   400cd0 <puts@plt>
  4018c8:	bf 01 00 00 00       	mov    $0x1,%edi
  4018cd:	e8 81 04 00 00       	call   401d53 <validate>
  4018d2:	bf 00 00 00 00       	mov    $0x0,%edi
  4018d7:	e8 74 f5 ff ff       	call   400e50 <exit@plt>

00000000004018dc <touch2>:
  4018dc:	48 83 ec 08          	sub    $0x8,%rsp
  4018e0:	89 fa                	mov    %edi,%edx
  4018e2:	c7 05 30 3c 20 00 02 	movl   $0x2,0x203c30(%rip)        # 60551c <vlevel>
  4018e9:	00 00 00 
  4018ec:	39 3d 32 3c 20 00    	cmp    %edi,0x203c32(%rip)        # 605524 <cookie>
  4018f2:	75 20                	jne    401914 <touch2+0x38>
  4018f4:	be 60 33 40 00       	mov    $0x403360,%esi
  4018f9:	bf 01 00 00 00       	mov    $0x1,%edi
  4018fe:	b8 00 00 00 00       	mov    $0x0,%eax
  401903:	e8 f8 f4 ff ff       	call   400e00 <__printf_chk@plt>
  401908:	bf 02 00 00 00       	mov    $0x2,%edi
  40190d:	e8 41 04 00 00       	call   401d53 <validate>
  401912:	eb 1e                	jmp    401932 <touch2+0x56>
  401914:	be 88 33 40 00       	mov    $0x403388,%esi
  401919:	bf 01 00 00 00       	mov    $0x1,%edi
  40191e:	b8 00 00 00 00       	mov    $0x0,%eax
  401923:	e8 d8 f4 ff ff       	call   400e00 <__printf_chk@plt>
  401928:	bf 02 00 00 00       	mov    $0x2,%edi
  40192d:	e8 e3 04 00 00       	call   401e15 <fail>
  401932:	bf 00 00 00 00       	mov    $0x0,%edi
  401937:	e8 14 f5 ff ff       	call   400e50 <exit@plt>

000000000040193c <hexmatch>:
  40193c:	41 54                	push   %r12
  40193e:	55                   	push   %rbp
  40193f:	53                   	push   %rbx
  401940:	48 83 c4 80          	add    $0xffffffffffffff80,%rsp
  401944:	89 fd                	mov    %edi,%ebp
  401946:	48 89 f3             	mov    %rsi,%rbx
  401949:	64 48 8b 04 25 28 00 	mov    %fs:0x28,%rax
  401950:	00 00 
  401952:	48 89 44 24 78       	mov    %rax,0x78(%rsp)
  401957:	31 c0                	xor    %eax,%eax
  401959:	e8 62 f4 ff ff       	call   400dc0 <random@plt>
  40195e:	48 89 c1             	mov    %rax,%rcx
  401961:	48 ba 0b d7 a3 70 3d 	movabs $0xa3d70a3d70a3d70b,%rdx
  401968:	0a d7 a3 
  40196b:	48 f7 ea             	imul   %rdx
  40196e:	48 01 ca             	add    %rcx,%rdx
  401971:	48 c1 fa 06          	sar    $0x6,%rdx
  401975:	48 89 c8             	mov    %rcx,%rax
  401978:	48 c1 f8 3f          	sar    $0x3f,%rax
  40197c:	48 29 c2             	sub    %rax,%rdx
  40197f:	48 8d 04 92          	lea    (%rdx,%rdx,4),%rax
  401983:	48 8d 14 80          	lea    (%rax,%rax,4),%rdx
  401987:	48 8d 04 95 00 00 00 	lea    0x0(,%rdx,4),%rax
  40198e:	00 
  40198f:	48 29 c1             	sub    %rax,%rcx
  401992:	4c 8d 24 0c          	lea    (%rsp,%rcx,1),%r12
  401996:	41 89 e8             	mov    %ebp,%r8d
  401999:	b9 56 33 40 00       	mov    $0x403356,%ecx
  40199e:	48 c7 c2 ff ff ff ff 	mov    $0xffffffffffffffff,%rdx
  4019a5:	be 01 00 00 00       	mov    $0x1,%esi
  4019aa:	4c 89 e7             	mov    %r12,%rdi
  4019ad:	b8 00 00 00 00       	mov    $0x0,%eax
  4019b2:	e8 c9 f4 ff ff       	call   400e80 <__sprintf_chk@plt>
  4019b7:	ba 09 00 00 00       	mov    $0x9,%edx
  4019bc:	4c 89 e6             	mov    %r12,%rsi
  4019bf:	48 89 df             	mov    %rbx,%rdi
  4019c2:	e8 e9 f2 ff ff       	call   400cb0 <strncmp@plt>
  4019c7:	85 c0                	test   %eax,%eax
  4019c9:	0f 94 c0             	sete   %al
  4019cc:	48 8b 5c 24 78       	mov    0x78(%rsp),%rbx
  4019d1:	64 48 33 1c 25 28 00 	xor    %fs:0x28,%rbx
  4019d8:	00 00 
  4019da:	74 05                	je     4019e1 <hexmatch+0xa5>
  4019dc:	e8 0f f3 ff ff       	call   400cf0 <__stack_chk_fail@plt>
  4019e1:	0f b6 c0             	movzbl %al,%eax
  4019e4:	48 83 ec 80          	sub    $0xffffffffffffff80,%rsp
  4019e8:	5b                   	pop    %rbx
  4019e9:	5d                   	pop    %rbp
  4019ea:	41 5c                	pop    %r12
  4019ec:	c3                   	ret    

00000000004019ed <touch3>:
  4019ed:	53                   	push   %rbx
  4019ee:	48 89 fb             	mov    %rdi,%rbx
  4019f1:	c7 05 21 3b 20 00 03 	movl   $0x3,0x203b21(%rip)        # 60551c <vlevel>
  4019f8:	00 00 00 
  4019fb:	48 89 fe             	mov    %rdi,%rsi
  4019fe:	8b 3d 20 3b 20 00    	mov    0x203b20(%rip),%edi        # 605524 <cookie>
  401a04:	e8 33 ff ff ff       	call   40193c <hexmatch>
  401a09:	85 c0                	test   %eax,%eax
  401a0b:	74 23                	je     401a30 <touch3+0x43>
  401a0d:	48 89 da             	mov    %rbx,%rdx
  401a10:	be b0 33 40 00       	mov    $0x4033b0,%esi
  401a15:	bf 01 00 00 00       	mov    $0x1,%edi
  401a1a:	b8 00 00 00 00       	mov    $0x0,%eax
  401a1f:	e8 dc f3 ff ff       	call   400e00 <__printf_chk@plt>
  401a24:	bf 03 00 00 00       	mov    $0x3,%edi
  401a29:	e8 25 03 00 00       	call   401d53 <validate>
  401a2e:	eb 21                	jmp    401a51 <touch3+0x64>
  401a30:	48 89 da             	mov    %rbx,%rdx
  401a33:	be d8 33 40 00       	mov    $0x4033d8,%esi
  401a38:	bf 01 00 00 00       	mov    $0x1,%edi
  401a3d:	b8 00 00 00 00       	mov    $0x0,%eax
  401a42:	e8 b9 f3 ff ff       	call   400e00 <__printf_chk@plt>
  401a47:	bf 03 00 00 00       	mov    $0x3,%edi
  401a4c:	e8 c4 03 00 00       	call   401e15 <fail>
  401a51:	bf 00 00 00 00       	mov    $0x0,%edi
  401a56:	e8 f5 f3 ff ff       	call   400e50 <exit@plt>

0000000000401a5b <test>:
  401a5b:	48 83 ec 08          	sub    $0x8,%rsp
  401a5f:	b8 00 00 00 00       	mov    $0x0,%eax
  401a64:	e8 31 fe ff ff       	call   40189a <getbuf>
  401a69:	48 83 c4 08          	add    $0x8,%rsp
  401a6d:	c3                   	ret    

0000000000401a6e <save_char>:
  401a6e:	8b 05 d0 46 20 00    	mov    0x2046d0(%rip),%eax        # 606144 <gets_cnt>
  401a74:	3d ff 03 00 00       	cmp    $0x3ff,%eax
  401a79:	7f 49                	jg     401ac4 <save_char+0x56>
  401a7b:	8d 14 40             	lea    (%rax,%rax,2),%edx
  401a7e:	89 f9                	mov    %edi,%ecx
  401a80:	c0 e9 04             	shr    $0x4,%cl
  401a83:	83 e1 0f             	and    $0xf,%ecx
  401a86:	0f b6 b1 d0 36 40 00 	movzbl 0x4036d0(%rcx),%esi
  401a8d:	48 63 ca             	movslq %edx,%rcx
  401a90:	40 88 b1 40 55 60 00 	mov    %sil,0x605540(%rcx)
  401a97:	8d 4a 01             	lea    0x1(%rdx),%ecx
  401a9a:	83 e7 0f             	and    $0xf,%edi
  401a9d:	0f b6 b7 d0 36 40 00 	movzbl 0x4036d0(%rdi),%esi
  401aa4:	48 63 c9             	movslq %ecx,%rcx
  401aa7:	40 88 b1 40 55 60 00 	mov    %sil,0x605540(%rcx)
  401aae:	83 c2 02             	add    $0x2,%edx
  401ab1:	48 63 d2             	movslq %edx,%rdx
  401ab4:	c6 82 40 55 60 00 20 	movb   $0x20,0x605540(%rdx)
  401abb:	83 c0 01             	add    $0x1,%eax
  401abe:	89 05 80 46 20 00    	mov    %eax,0x204680(%rip)        # 606144 <gets_cnt>
  401ac4:	f3 c3                	repz ret 

0000000000401ac6 <save_term>:
  401ac6:	8b 05 78 46 20 00    	mov    0x204678(%rip),%eax        # 606144 <gets_cnt>
  401acc:	8d 04 40             	lea    (%rax,%rax,2),%eax
  401acf:	48 98                	cltq   
  401ad1:	c6 80 40 55 60 00 00 	movb   $0x0,0x605540(%rax)
  401ad8:	c3                   	ret    

0000000000401ad9 <check_fail>:
  401ad9:	48 83 ec 08          	sub    $0x8,%rsp
  401add:	0f be 15 64 46 20 00 	movsbl 0x204664(%rip),%edx        # 606148 <target_prefix>
  401ae4:	41 b8 40 55 60 00    	mov    $0x605540,%r8d
  401aea:	8b 0d 28 3a 20 00    	mov    0x203a28(%rip),%ecx        # 605518 <check_level>
  401af0:	be fa 33 40 00       	mov    $0x4033fa,%esi
  401af5:	bf 01 00 00 00       	mov    $0x1,%edi
  401afa:	b8 00 00 00 00       	mov    $0x0,%eax
  401aff:	e8 fc f2 ff ff       	call   400e00 <__printf_chk@plt>
  401b04:	bf 01 00 00 00       	mov    $0x1,%edi
  401b09:	e8 42 f3 ff ff       	call   400e50 <exit@plt>

0000000000401b0e <Gets>:
  401b0e:	41 54                	push   %r12
  401b10:	55                   	push   %rbp
  401b11:	53                   	push   %rbx
  401b12:	49 89 fc             	mov    %rdi,%r12
  401b15:	c7 05 25 46 20 00 00 	movl   $0x0,0x204625(%rip)        # 606144 <gets_cnt>
  401b1c:	00 00 00 
  401b1f:	48 89 fb             	mov    %rdi,%rbx
  401b22:	eb 11                	jmp    401b35 <Gets+0x27>
  401b24:	48 8d 6b 01          	lea    0x1(%rbx),%rbp
  401b28:	88 03                	mov    %al,(%rbx)
  401b2a:	0f b6 f8             	movzbl %al,%edi
  401b2d:	e8 3c ff ff ff       	call   401a6e <save_char>
  401b32:	48 89 eb             	mov    %rbp,%rbx
  401b35:	48 8b 3d d4 39 20 00 	mov    0x2039d4(%rip),%rdi        # 605510 <infile>
  401b3c:	e8 8f f2 ff ff       	call   400dd0 <_IO_getc@plt>
  401b41:	83 f8 ff             	cmp    $0xffffffff,%eax
  401b44:	74 05                	je     401b4b <Gets+0x3d>
  401b46:	83 f8 0a             	cmp    $0xa,%eax
  401b49:	75 d9                	jne    401b24 <Gets+0x16>
  401b4b:	c6 03 00             	movb   $0x0,(%rbx)
  401b4e:	b8 00 00 00 00       	mov    $0x0,%eax
  401b53:	e8 6e ff ff ff       	call   401ac6 <save_term>
  401b58:	4c 89 e0             	mov    %r12,%rax
  401b5b:	5b                   	pop    %rbx
  401b5c:	5d                   	pop    %rbp
  401b5d:	41 5c                	pop    %r12
  401b5f:	c3                   	ret    

0000000000401b60 <notify_server>:
  401b60:	53                   	push   %rbx
  401b61:	48 81 ec 10 40 00 00 	sub    $0x4010,%rsp
  401b68:	64 48 8b 04 25 28 00 	mov    %fs:0x28,%rax
  401b6f:	00 00 
  401b71:	48 89 84 24 08 40 00 	mov    %rax,0x4008(%rsp)
  401b78:	00 
  401b79:	31 c0                	xor    %eax,%eax
  401b7b:	83 3d a6 39 20 00 00 	cmpl   $0x0,0x2039a6(%rip)        # 605528 <is_checker>
  401b82:	0f 85 aa 01 00 00    	jne    401d32 <notify_server+0x1d2>
  401b88:	89 fb                	mov    %edi,%ebx
  401b8a:	8b 05 b4 45 20 00    	mov    0x2045b4(%rip),%eax        # 606144 <gets_cnt>
  401b90:	83 c0 64             	add    $0x64,%eax
  401b93:	3d 00 20 00 00       	cmp    $0x2000,%eax
  401b98:	7e 1e                	jle    401bb8 <notify_server+0x58>
  401b9a:	be 08 35 40 00       	mov    $0x403508,%esi
  401b9f:	bf 01 00 00 00       	mov    $0x1,%edi
  401ba4:	b8 00 00 00 00       	mov    $0x0,%eax
  401ba9:	e8 52 f2 ff ff       	call   400e00 <__printf_chk@plt>
  401bae:	bf 01 00 00 00       	mov    $0x1,%edi
  401bb3:	e8 98 f2 ff ff       	call   400e50 <exit@plt>
  401bb8:	0f be 05 89 45 20 00 	movsbl 0x204589(%rip),%eax        # 606148 <target_prefix>
  401bbf:	83 3d e2 38 20 00 00 	cmpl   $0x0,0x2038e2(%rip)        # 6054a8 <notify>
  401bc6:	74 08                	je     401bd0 <notify_server+0x70>
  401bc8:	8b 15 52 39 20 00    	mov    0x203952(%rip),%edx        # 605520 <authkey>
  401bce:	eb 05                	jmp    401bd5 <notify_server+0x75>
  401bd0:	ba ff ff ff ff       	mov    $0xffffffff,%edx
  401bd5:	85 db                	test   %ebx,%ebx
  401bd7:	74 08                	je     401be1 <notify_server+0x81>
  401bd9:	41 b9 10 34 40 00    	mov    $0x403410,%r9d
  401bdf:	eb 06                	jmp    401be7 <notify_server+0x87>
  401be1:	41 b9 15 34 40 00    	mov    $0x403415,%r9d
  401be7:	68 40 55 60 00       	push   $0x605540
  401bec:	56                   	push   %rsi
  401bed:	50                   	push   %rax
  401bee:	52                   	push   %rdx
  401bef:	44 8b 05 72 35 20 00 	mov    0x203572(%rip),%r8d        # 605168 <target_id>
  401bf6:	b9 1a 34 40 00       	mov    $0x40341a,%ecx
  401bfb:	ba 00 20 00 00       	mov    $0x2000,%edx
  401c00:	be 01 00 00 00       	mov    $0x1,%esi
  401c05:	48 8d 7c 24 20       	lea    0x20(%rsp),%rdi
  401c0a:	b8 00 00 00 00       	mov    $0x0,%eax
  401c0f:	e8 6c f2 ff ff       	call   400e80 <__sprintf_chk@plt>
  401c14:	48 83 c4 20          	add    $0x20,%rsp
  401c18:	83 3d 89 38 20 00 00 	cmpl   $0x0,0x203889(%rip)        # 6054a8 <notify>
  401c1f:	0f 84 81 00 00 00    	je     401ca6 <notify_server+0x146>
  401c25:	85 db                	test   %ebx,%ebx
  401c27:	74 6e                	je     401c97 <notify_server+0x137>
  401c29:	4c 8d 8c 24 00 20 00 	lea    0x2000(%rsp),%r9
  401c30:	00 
  401c31:	41 b8 00 00 00 00    	mov    $0x0,%r8d
  401c37:	48 89 e1             	mov    %rsp,%rcx
  401c3a:	48 8b 15 2f 35 20 00 	mov    0x20352f(%rip),%rdx        # 605170 <lab>
  401c41:	48 8b 35 30 35 20 00 	mov    0x203530(%rip),%rsi        # 605178 <course>
  401c48:	48 8b 3d 11 35 20 00 	mov    0x203511(%rip),%rdi        # 605160 <user_id>
  401c4f:	e8 a4 10 00 00       	call   402cf8 <driver_post>
  401c54:	85 c0                	test   %eax,%eax
  401c56:	79 26                	jns    401c7e <notify_server+0x11e>
  401c58:	48 8d 94 24 00 20 00 	lea    0x2000(%rsp),%rdx
  401c5f:	00 
  401c60:	be 36 34 40 00       	mov    $0x403436,%esi
  401c65:	bf 01 00 00 00       	mov    $0x1,%edi
  401c6a:	b8 00 00 00 00       	mov    $0x0,%eax
  401c6f:	e8 8c f1 ff ff       	call   400e00 <__printf_chk@plt>
  401c74:	bf 01 00 00 00       	mov    $0x1,%edi
  401c79:	e8 d2 f1 ff ff       	call   400e50 <exit@plt>
  401c7e:	bf 38 35 40 00       	mov    $0x403538,%edi
  401c83:	e8 48 f0 ff ff       	call   400cd0 <puts@plt>
  401c88:	bf 42 34 40 00       	mov    $0x403442,%edi
  401c8d:	e8 3e f0 ff ff       	call   400cd0 <puts@plt>
  401c92:	e9 9b 00 00 00       	jmp    401d32 <notify_server+0x1d2>
  401c97:	bf 4c 34 40 00       	mov    $0x40344c,%edi
  401c9c:	e8 2f f0 ff ff       	call   400cd0 <puts@plt>
  401ca1:	e9 8c 00 00 00       	jmp    401d32 <notify_server+0x1d2>
  401ca6:	85 db                	test   %ebx,%ebx
  401ca8:	74 07                	je     401cb1 <notify_server+0x151>
  401caa:	ba 10 34 40 00       	mov    $0x403410,%edx
  401caf:	eb 05                	jmp    401cb6 <notify_server+0x156>
  401cb1:	ba 15 34 40 00       	mov    $0x403415,%edx
  401cb6:	be 70 35 40 00       	mov    $0x403570,%esi
  401cbb:	bf 01 00 00 00       	mov    $0x1,%edi
  401cc0:	b8 00 00 00 00       	mov    $0x0,%eax
  401cc5:	e8 36 f1 ff ff       	call   400e00 <__printf_chk@plt>
  401cca:	48 8b 15 8f 34 20 00 	mov    0x20348f(%rip),%rdx        # 605160 <user_id>
  401cd1:	be 53 34 40 00       	mov    $0x403453,%esi
  401cd6:	bf 01 00 00 00       	mov    $0x1,%edi
  401cdb:	b8 00 00 00 00       	mov    $0x0,%eax
  401ce0:	e8 1b f1 ff ff       	call   400e00 <__printf_chk@plt>
  401ce5:	48 8b 15 8c 34 20 00 	mov    0x20348c(%rip),%rdx        # 605178 <course>
  401cec:	be 60 34 40 00       	mov    $0x403460,%esi
  401cf1:	bf 01 00 00 00       	mov    $0x1,%edi
  401cf6:	b8 00 00 00 00       	mov    $0x0,%eax
  401cfb:	e8 00 f1 ff ff       	call   400e00 <__printf_chk@plt>
  401d00:	48 8b 15 69 34 20 00 	mov    0x203469(%rip),%rdx        # 605170 <lab>
  401d07:	be 6c 34 40 00       	mov    $0x40346c,%esi
  401d0c:	bf 01 00 00 00       	mov    $0x1,%edi
  401d11:	b8 00 00 00 00       	mov    $0x0,%eax
  401d16:	e8 e5 f0 ff ff       	call   400e00 <__printf_chk@plt>
  401d1b:	48 89 e2             	mov    %rsp,%rdx
  401d1e:	be 75 34 40 00       	mov    $0x403475,%esi
  401d23:	bf 01 00 00 00       	mov    $0x1,%edi
  401d28:	b8 00 00 00 00       	mov    $0x0,%eax
  401d2d:	e8 ce f0 ff ff       	call   400e00 <__printf_chk@plt>
  401d32:	48 8b 84 24 08 40 00 	mov    0x4008(%rsp),%rax
  401d39:	00 
  401d3a:	64 48 33 04 25 28 00 	xor    %fs:0x28,%rax
  401d41:	00 00 
  401d43:	74 05                	je     401d4a <notify_server+0x1ea>
  401d45:	e8 a6 ef ff ff       	call   400cf0 <__stack_chk_fail@plt>
  401d4a:	48 81 c4 10 40 00 00 	add    $0x4010,%rsp
  401d51:	5b                   	pop    %rbx
  401d52:	c3                   	ret    

0000000000401d53 <validate>:
  401d53:	53                   	push   %rbx
  401d54:	89 fb                	mov    %edi,%ebx
  401d56:	83 3d cb 37 20 00 00 	cmpl   $0x0,0x2037cb(%rip)        # 605528 <is_checker>
  401d5d:	74 6b                	je     401dca <validate+0x77>
  401d5f:	39 3d b7 37 20 00    	cmp    %edi,0x2037b7(%rip)        # 60551c <vlevel>
  401d65:	74 14                	je     401d7b <validate+0x28>
  401d67:	bf 81 34 40 00       	mov    $0x403481,%edi
  401d6c:	e8 5f ef ff ff       	call   400cd0 <puts@plt>
  401d71:	b8 00 00 00 00       	mov    $0x0,%eax
  401d76:	e8 5e fd ff ff       	call   401ad9 <check_fail>
  401d7b:	8b 15 97 37 20 00    	mov    0x203797(%rip),%edx        # 605518 <check_level>
  401d81:	39 d7                	cmp    %edx,%edi
  401d83:	74 20                	je     401da5 <validate+0x52>
  401d85:	89 f9                	mov    %edi,%ecx
  401d87:	be 98 35 40 00       	mov    $0x403598,%esi
  401d8c:	bf 01 00 00 00       	mov    $0x1,%edi
  401d91:	b8 00 00 00 00       	mov    $0x0,%eax
  401d96:	e8 65 f0 ff ff       	call   400e00 <__printf_chk@plt>
  401d9b:	b8 00 00 00 00       	mov    $0x0,%eax
  401da0:	e8 34 fd ff ff       	call   401ad9 <check_fail>
  401da5:	0f be 15 9c 43 20 00 	movsbl 0x20439c(%rip),%edx        # 606148 <target_prefix>
  401dac:	41 b8 40 55 60 00    	mov    $0x605540,%r8d
  401db2:	89 f9                	mov    %edi,%ecx
  401db4:	be 9f 34 40 00       	mov    $0x40349f,%esi
  401db9:	bf 01 00 00 00       	mov    $0x1,%edi
  401dbe:	b8 00 00 00 00       	mov    $0x0,%eax
  401dc3:	e8 38 f0 ff ff       	call   400e00 <__printf_chk@plt>
  401dc8:	eb 49                	jmp    401e13 <validate+0xc0>
  401dca:	3b 3d 4c 37 20 00    	cmp    0x20374c(%rip),%edi        # 60551c <vlevel>
  401dd0:	74 18                	je     401dea <validate+0x97>
  401dd2:	bf 81 34 40 00       	mov    $0x403481,%edi
  401dd7:	e8 f4 ee ff ff       	call   400cd0 <puts@plt>
  401ddc:	89 de                	mov    %ebx,%esi
  401dde:	bf 00 00 00 00       	mov    $0x0,%edi
  401de3:	e8 78 fd ff ff       	call   401b60 <notify_server>
  401de8:	eb 29                	jmp    401e13 <validate+0xc0>
  401dea:	0f be 0d 57 43 20 00 	movsbl 0x204357(%rip),%ecx        # 606148 <target_prefix>
  401df1:	89 fa                	mov    %edi,%edx
  401df3:	be c0 35 40 00       	mov    $0x4035c0,%esi
  401df8:	bf 01 00 00 00       	mov    $0x1,%edi
  401dfd:	b8 00 00 00 00       	mov    $0x0,%eax
  401e02:	e8 f9 ef ff ff       	call   400e00 <__printf_chk@plt>
  401e07:	89 de                	mov    %ebx,%esi
  401e09:	bf 01 00 00 00       	mov    $0x1,%edi
  401e0e:	e8 4d fd ff ff       	call   401b60 <notify_server>
  401e13:	5b                   	pop    %rbx
  401e14:	c3                   	ret    

0000000000401e15 <fail>:
  401e15:	48 83 ec 08          	sub    $0x8,%rsp
  401e19:	83 3d 08 37 20 00 00 	cmpl   $0x0,0x203708(%rip)        # 605528 <is_checker>
  401e20:	74 0a                	je     401e2c <fail+0x17>
  401e22:	b8 00 00 00 00       	mov    $0x0,%eax
  401e27:	e8 ad fc ff ff       	call   401ad9 <check_fail>
  401e2c:	89 fe                	mov    %edi,%esi
  401e2e:	bf 00 00 00 00       	mov    $0x0,%edi
  401e33:	e8 28 fd ff ff       	call   401b60 <notify_server>
  401e38:	48 83 c4 08          	add    $0x8,%rsp
  401e3c:	c3                   	ret    

0000000000401e3d <bushandler>:
  401e3d:	48 83 ec 08          	sub    $0x8,%rsp
  401e41:	83 3d e0 36 20 00 00 	cmpl   $0x0,0x2036e0(%rip)        # 605528 <is_checker>
  401e48:	74 14                	je     401e5e <bushandler+0x21>
  401e4a:	bf b4 34 40 00       	mov    $0x4034b4,%edi
  401e4f:	e8 7c ee ff ff       	call   400cd0 <puts@plt>
  401e54:	b8 00 00 00 00       	mov    $0x0,%eax
  401e59:	e8 7b fc ff ff       	call   401ad9 <check_fail>
  401e5e:	bf f8 35 40 00       	mov    $0x4035f8,%edi
  401e63:	e8 68 ee ff ff       	call   400cd0 <puts@plt>
  401e68:	bf be 34 40 00       	mov    $0x4034be,%edi
  401e6d:	e8 5e ee ff ff       	call   400cd0 <puts@plt>
  401e72:	be 00 00 00 00       	mov    $0x0,%esi
  401e77:	bf 00 00 00 00       	mov    $0x0,%edi
  401e7c:	e8 df fc ff ff       	call   401b60 <notify_server>
  401e81:	bf 01 00 00 00       	mov    $0x1,%edi
  401e86:	e8 c5 ef ff ff       	call   400e50 <exit@plt>

0000000000401e8b <seghandler>:
  401e8b:	48 83 ec 08          	sub    $0x8,%rsp
  401e8f:	83 3d 92 36 20 00 00 	cmpl   $0x0,0x203692(%rip)        # 605528 <is_checker>
  401e96:	74 14                	je     401eac <seghandler+0x21>
  401e98:	bf d4 34 40 00       	mov    $0x4034d4,%edi
  401e9d:	e8 2e ee ff ff       	call   400cd0 <puts@plt>
  401ea2:	b8 00 00 00 00       	mov    $0x0,%eax
  401ea7:	e8 2d fc ff ff       	call   401ad9 <check_fail>
  401eac:	bf 18 36 40 00       	mov    $0x403618,%edi
  401eb1:	e8 1a ee ff ff       	call   400cd0 <puts@plt>
  401eb6:	bf be 34 40 00       	mov    $0x4034be,%edi
  401ebb:	e8 10 ee ff ff       	call   400cd0 <puts@plt>
  401ec0:	be 00 00 00 00       	mov    $0x0,%esi
  401ec5:	bf 00 00 00 00       	mov    $0x0,%edi
  401eca:	e8 91 fc ff ff       	call   401b60 <notify_server>
  401ecf:	bf 01 00 00 00       	mov    $0x1,%edi
  401ed4:	e8 77 ef ff ff       	call   400e50 <exit@plt>

0000000000401ed9 <illegalhandler>:
  401ed9:	48 83 ec 08          	sub    $0x8,%rsp
  401edd:	83 3d 44 36 20 00 00 	cmpl   $0x0,0x203644(%rip)        # 605528 <is_checker>
  401ee4:	74 14                	je     401efa <illegalhandler+0x21>
  401ee6:	bf e7 34 40 00       	mov    $0x4034e7,%edi
  401eeb:	e8 e0 ed ff ff       	call   400cd0 <puts@plt>
  401ef0:	b8 00 00 00 00       	mov    $0x0,%eax
  401ef5:	e8 df fb ff ff       	call   401ad9 <check_fail>
  401efa:	bf 40 36 40 00       	mov    $0x403640,%edi
  401eff:	e8 cc ed ff ff       	call   400cd0 <puts@plt>
  401f04:	bf be 34 40 00       	mov    $0x4034be,%edi
  401f09:	e8 c2 ed ff ff       	call   400cd0 <puts@plt>
  401f0e:	be 00 00 00 00       	mov    $0x0,%esi
  401f13:	bf 00 00 00 00       	mov    $0x0,%edi
  401f18:	e8 43 fc ff ff       	call   401b60 <notify_server>
  401f1d:	bf 01 00 00 00       	mov    $0x1,%edi
  401f22:	e8 29 ef ff ff       	call   400e50 <exit@plt>

0000000000401f27 <sigalrmhandler>:
  401f27:	48 83 ec 08          	sub    $0x8,%rsp
  401f2b:	83 3d f6 35 20 00 00 	cmpl   $0x0,0x2035f6(%rip)        # 605528 <is_checker>
  401f32:	74 14                	je     401f48 <sigalrmhandler+0x21>
  401f34:	bf fb 34 40 00       	mov    $0x4034fb,%edi
  401f39:	e8 92 ed ff ff       	call   400cd0 <puts@plt>
  401f3e:	b8 00 00 00 00       	mov    $0x0,%eax
  401f43:	e8 91 fb ff ff       	call   401ad9 <check_fail>
  401f48:	ba 05 00 00 00       	mov    $0x5,%edx
  401f4d:	be 70 36 40 00       	mov    $0x403670,%esi
  401f52:	bf 01 00 00 00       	mov    $0x1,%edi
  401f57:	b8 00 00 00 00       	mov    $0x0,%eax
  401f5c:	e8 9f ee ff ff       	call   400e00 <__printf_chk@plt>
  401f61:	be 00 00 00 00       	mov    $0x0,%esi
  401f66:	bf 00 00 00 00       	mov    $0x0,%edi
  401f6b:	e8 f0 fb ff ff       	call   401b60 <notify_server>
  401f70:	bf 01 00 00 00       	mov    $0x1,%edi
  401f75:	e8 d6 ee ff ff       	call   400e50 <exit@plt>

0000000000401f7a <launch>:
  401f7a:	55                   	push   %rbp
  401f7b:	48 89 e5             	mov    %rsp,%rbp
  401f7e:	48 83 ec 10          	sub    $0x10,%rsp
  401f82:	48 89 fa             	mov    %rdi,%rdx
  401f85:	64 48 8b 04 25 28 00 	mov    %fs:0x28,%rax
  401f8c:	00 00 
  401f8e:	48 89 45 f8          	mov    %rax,-0x8(%rbp)
  401f92:	31 c0                	xor    %eax,%eax
  401f94:	48 8d 47 1e          	lea    0x1e(%rdi),%rax
  401f98:	48 83 e0 f0          	and    $0xfffffffffffffff0,%rax
  401f9c:	48 29 c4             	sub    %rax,%rsp
  401f9f:	48 8d 7c 24 0f       	lea    0xf(%rsp),%rdi
  401fa4:	48 83 e7 f0          	and    $0xfffffffffffffff0,%rdi
  401fa8:	be f4 00 00 00       	mov    $0xf4,%esi
  401fad:	e8 5e ed ff ff       	call   400d10 <memset@plt>
  401fb2:	c7 05 60 35 20 00 00 	movl   $0x0,0x203560(%rip)        # 60551c <vlevel>
  401fb9:	00 00 00 
  401fbc:	b8 00 00 00 00       	mov    $0x0,%eax
  401fc1:	e8 95 fa ff ff       	call   401a5b <test>
  401fc6:	48 8b 45 f8          	mov    -0x8(%rbp),%rax
  401fca:	64 48 33 04 25 28 00 	xor    %fs:0x28,%rax
  401fd1:	00 00 
  401fd3:	74 05                	je     401fda <launch+0x60>
  401fd5:	e8 16 ed ff ff       	call   400cf0 <__stack_chk_fail@plt>
  401fda:	c9                   	leave  
  401fdb:	c3                   	ret    

0000000000401fdc <stable_launch>:
  401fdc:	53                   	push   %rbx
  401fdd:	48 89 3d 24 35 20 00 	mov    %rdi,0x203524(%rip)        # 605508 <global_offset>
  401fe4:	41 b9 00 00 00 00    	mov    $0x0,%r9d
  401fea:	41 b8 00 00 00 00    	mov    $0x0,%r8d
  401ff0:	b9 32 01 00 00       	mov    $0x132,%ecx
  401ff5:	ba 07 00 00 00       	mov    $0x7,%edx
  401ffa:	be 00 00 10 00       	mov    $0x100000,%esi
  401fff:	bf 00 60 58 55       	mov    $0x55586000,%edi
  402004:	e8 f7 ec ff ff       	call   400d00 <mmap@plt>
  402009:	48 89 c3             	mov    %rax,%rbx
  40200c:	48 3d 00 60 58 55    	cmp    $0x55586000,%rax
  402012:	74 37                	je     40204b <stable_launch+0x6f>
  402014:	be 00 00 10 00       	mov    $0x100000,%esi
  402019:	48 89 c7             	mov    %rax,%rdi
  40201c:	e8 cf ed ff ff       	call   400df0 <munmap@plt>
  402021:	b9 00 60 58 55       	mov    $0x55586000,%ecx
  402026:	ba a8 36 40 00       	mov    $0x4036a8,%edx
  40202b:	be 01 00 00 00       	mov    $0x1,%esi
  402030:	48 8b 3d a9 34 20 00 	mov    0x2034a9(%rip),%rdi        # 6054e0 <stderr@GLIBC_2.2.5>
  402037:	b8 00 00 00 00       	mov    $0x0,%eax
  40203c:	e8 2f ee ff ff       	call   400e70 <__fprintf_chk@plt>
  402041:	bf 01 00 00 00       	mov    $0x1,%edi
  402046:	e8 05 ee ff ff       	call   400e50 <exit@plt>
  40204b:	48 8d 90 f8 ff 0f 00 	lea    0xffff8(%rax),%rdx
  402052:	48 89 15 f7 40 20 00 	mov    %rdx,0x2040f7(%rip)        # 606150 <stack_top>
  402059:	48 89 e0             	mov    %rsp,%rax
  40205c:	48 89 d4             	mov    %rdx,%rsp
  40205f:	48 89 c2             	mov    %rax,%rdx
  402062:	48 89 15 97 34 20 00 	mov    %rdx,0x203497(%rip)        # 605500 <global_save_stack>
  402069:	48 8b 3d 98 34 20 00 	mov    0x203498(%rip),%rdi        # 605508 <global_offset>
  402070:	e8 05 ff ff ff       	call   401f7a <launch>
  402075:	48 8b 05 84 34 20 00 	mov    0x203484(%rip),%rax        # 605500 <global_save_stack>
  40207c:	48 89 c4             	mov    %rax,%rsp
  40207f:	be 00 00 10 00       	mov    $0x100000,%esi
  402084:	48 89 df             	mov    %rbx,%rdi
  402087:	e8 64 ed ff ff       	call   400df0 <munmap@plt>
  40208c:	5b                   	pop    %rbx
  40208d:	c3                   	ret    

000000000040208e <rio_readinitb>:
  40208e:	89 37                	mov    %esi,(%rdi)
  402090:	c7 47 04 00 00 00 00 	movl   $0x0,0x4(%rdi)
  402097:	48 8d 47 10          	lea    0x10(%rdi),%rax
  40209b:	48 89 47 08          	mov    %rax,0x8(%rdi)
  40209f:	c3                   	ret    

00000000004020a0 <sigalrm_handler>:
  4020a0:	48 83 ec 08          	sub    $0x8,%rsp
  4020a4:	b9 00 00 00 00       	mov    $0x0,%ecx
  4020a9:	ba e0 36 40 00       	mov    $0x4036e0,%edx
  4020ae:	be 01 00 00 00       	mov    $0x1,%esi
  4020b3:	48 8b 3d 26 34 20 00 	mov    0x203426(%rip),%rdi        # 6054e0 <stderr@GLIBC_2.2.5>
  4020ba:	b8 00 00 00 00       	mov    $0x0,%eax
  4020bf:	e8 ac ed ff ff       	call   400e70 <__fprintf_chk@plt>
  4020c4:	bf 01 00 00 00       	mov    $0x1,%edi
  4020c9:	e8 82 ed ff ff       	call   400e50 <exit@plt>

00000000004020ce <rio_writen>:
  4020ce:	41 55                	push   %r13
  4020d0:	41 54                	push   %r12
  4020d2:	55                   	push   %rbp
  4020d3:	53                   	push   %rbx
  4020d4:	48 83 ec 08          	sub    $0x8,%rsp
  4020d8:	41 89 fc             	mov    %edi,%r12d
  4020db:	48 89 f5             	mov    %rsi,%rbp
  4020de:	49 89 d5             	mov    %rdx,%r13
  4020e1:	48 89 d3             	mov    %rdx,%rbx
  4020e4:	eb 28                	jmp    40210e <rio_writen+0x40>
  4020e6:	48 89 da             	mov    %rbx,%rdx
  4020e9:	48 89 ee             	mov    %rbp,%rsi
  4020ec:	44 89 e7             	mov    %r12d,%edi
  4020ef:	e8 ec eb ff ff       	call   400ce0 <write@plt>
  4020f4:	48 85 c0             	test   %rax,%rax
  4020f7:	7f 0f                	jg     402108 <rio_writen+0x3a>
  4020f9:	e8 92 eb ff ff       	call   400c90 <__errno_location@plt>
  4020fe:	83 38 04             	cmpl   $0x4,(%rax)
  402101:	75 15                	jne    402118 <rio_writen+0x4a>
  402103:	b8 00 00 00 00       	mov    $0x0,%eax
  402108:	48 29 c3             	sub    %rax,%rbx
  40210b:	48 01 c5             	add    %rax,%rbp
  40210e:	48 85 db             	test   %rbx,%rbx
  402111:	75 d3                	jne    4020e6 <rio_writen+0x18>
  402113:	4c 89 e8             	mov    %r13,%rax
  402116:	eb 07                	jmp    40211f <rio_writen+0x51>
  402118:	48 c7 c0 ff ff ff ff 	mov    $0xffffffffffffffff,%rax
  40211f:	48 83 c4 08          	add    $0x8,%rsp
  402123:	5b                   	pop    %rbx
  402124:	5d                   	pop    %rbp
  402125:	41 5c                	pop    %r12
  402127:	41 5d                	pop    %r13
  402129:	c3                   	ret    

000000000040212a <rio_read>:
  40212a:	41 55                	push   %r13
  40212c:	41 54                	push   %r12
  40212e:	55                   	push   %rbp
  40212f:	53                   	push   %rbx
  402130:	48 83 ec 08          	sub    $0x8,%rsp
  402134:	48 89 fb             	mov    %rdi,%rbx
  402137:	49 89 f5             	mov    %rsi,%r13
  40213a:	49 89 d4             	mov    %rdx,%r12
  40213d:	eb 2e                	jmp    40216d <rio_read+0x43>
  40213f:	48 8d 6b 10          	lea    0x10(%rbx),%rbp
  402143:	8b 3b                	mov    (%rbx),%edi
  402145:	ba 00 20 00 00       	mov    $0x2000,%edx
  40214a:	48 89 ee             	mov    %rbp,%rsi
  40214d:	e8 ee eb ff ff       	call   400d40 <read@plt>
  402152:	89 43 04             	mov    %eax,0x4(%rbx)
  402155:	85 c0                	test   %eax,%eax
  402157:	79 0c                	jns    402165 <rio_read+0x3b>
  402159:	e8 32 eb ff ff       	call   400c90 <__errno_location@plt>
  40215e:	83 38 04             	cmpl   $0x4,(%rax)
  402161:	74 0a                	je     40216d <rio_read+0x43>
  402163:	eb 37                	jmp    40219c <rio_read+0x72>
  402165:	85 c0                	test   %eax,%eax
  402167:	74 3c                	je     4021a5 <rio_read+0x7b>
  402169:	48 89 6b 08          	mov    %rbp,0x8(%rbx)
  40216d:	8b 6b 04             	mov    0x4(%rbx),%ebp
  402170:	85 ed                	test   %ebp,%ebp
  402172:	7e cb                	jle    40213f <rio_read+0x15>
  402174:	89 e8                	mov    %ebp,%eax
  402176:	49 39 c4             	cmp    %rax,%r12
  402179:	77 03                	ja     40217e <rio_read+0x54>
  40217b:	44 89 e5             	mov    %r12d,%ebp
  40217e:	4c 63 e5             	movslq %ebp,%r12
  402181:	48 8b 73 08          	mov    0x8(%rbx),%rsi
  402185:	4c 89 e2             	mov    %r12,%rdx
  402188:	4c 89 ef             	mov    %r13,%rdi
  40218b:	e8 10 ec ff ff       	call   400da0 <memcpy@plt>
  402190:	4c 01 63 08          	add    %r12,0x8(%rbx)
  402194:	29 6b 04             	sub    %ebp,0x4(%rbx)
  402197:	4c 89 e0             	mov    %r12,%rax
  40219a:	eb 0e                	jmp    4021aa <rio_read+0x80>
  40219c:	48 c7 c0 ff ff ff ff 	mov    $0xffffffffffffffff,%rax
  4021a3:	eb 05                	jmp    4021aa <rio_read+0x80>
  4021a5:	b8 00 00 00 00       	mov    $0x0,%eax
  4021aa:	48 83 c4 08          	add    $0x8,%rsp
  4021ae:	5b                   	pop    %rbx
  4021af:	5d                   	pop    %rbp
  4021b0:	41 5c                	pop    %r12
  4021b2:	41 5d                	pop    %r13
  4021b4:	c3                   	ret    

00000000004021b5 <rio_readlineb>:
  4021b5:	41 55                	push   %r13
  4021b7:	41 54                	push   %r12
  4021b9:	55                   	push   %rbp
  4021ba:	53                   	push   %rbx
  4021bb:	48 83 ec 18          	sub    $0x18,%rsp
  4021bf:	49 89 fd             	mov    %rdi,%r13
  4021c2:	48 89 f5             	mov    %rsi,%rbp
  4021c5:	49 89 d4             	mov    %rdx,%r12
  4021c8:	64 48 8b 04 25 28 00 	mov    %fs:0x28,%rax
  4021cf:	00 00 
  4021d1:	48 89 44 24 08       	mov    %rax,0x8(%rsp)
  4021d6:	31 c0                	xor    %eax,%eax
  4021d8:	bb 01 00 00 00       	mov    $0x1,%ebx
  4021dd:	eb 3f                	jmp    40221e <rio_readlineb+0x69>
  4021df:	ba 01 00 00 00       	mov    $0x1,%edx
  4021e4:	48 8d 74 24 07       	lea    0x7(%rsp),%rsi
  4021e9:	4c 89 ef             	mov    %r13,%rdi
  4021ec:	e8 39 ff ff ff       	call   40212a <rio_read>
  4021f1:	83 f8 01             	cmp    $0x1,%eax
  4021f4:	75 15                	jne    40220b <rio_readlineb+0x56>
  4021f6:	48 8d 45 01          	lea    0x1(%rbp),%rax
  4021fa:	0f b6 54 24 07       	movzbl 0x7(%rsp),%edx
  4021ff:	88 55 00             	mov    %dl,0x0(%rbp)
  402202:	80 7c 24 07 0a       	cmpb   $0xa,0x7(%rsp)
  402207:	75 0e                	jne    402217 <rio_readlineb+0x62>
  402209:	eb 1a                	jmp    402225 <rio_readlineb+0x70>
  40220b:	85 c0                	test   %eax,%eax
  40220d:	75 22                	jne    402231 <rio_readlineb+0x7c>
  40220f:	48 83 fb 01          	cmp    $0x1,%rbx
  402213:	75 13                	jne    402228 <rio_readlineb+0x73>
  402215:	eb 23                	jmp    40223a <rio_readlineb+0x85>
  402217:	48 83 c3 01          	add    $0x1,%rbx
  40221b:	48 89 c5             	mov    %rax,%rbp
  40221e:	4c 39 e3             	cmp    %r12,%rbx
  402221:	72 bc                	jb     4021df <rio_readlineb+0x2a>
  402223:	eb 03                	jmp    402228 <rio_readlineb+0x73>
  402225:	48 89 c5             	mov    %rax,%rbp
  402228:	c6 45 00 00          	movb   $0x0,0x0(%rbp)
  40222c:	48 89 d8             	mov    %rbx,%rax
  40222f:	eb 0e                	jmp    40223f <rio_readlineb+0x8a>
  402231:	48 c7 c0 ff ff ff ff 	mov    $0xffffffffffffffff,%rax
  402238:	eb 05                	jmp    40223f <rio_readlineb+0x8a>
  40223a:	b8 00 00 00 00       	mov    $0x0,%eax
  40223f:	48 8b 4c 24 08       	mov    0x8(%rsp),%rcx
  402244:	64 48 33 0c 25 28 00 	xor    %fs:0x28,%rcx
  40224b:	00 00 
  40224d:	74 05                	je     402254 <rio_readlineb+0x9f>
  40224f:	e8 9c ea ff ff       	call   400cf0 <__stack_chk_fail@plt>
  402254:	48 83 c4 18          	add    $0x18,%rsp
  402258:	5b                   	pop    %rbx
  402259:	5d                   	pop    %rbp
  40225a:	41 5c                	pop    %r12
  40225c:	41 5d                	pop    %r13
  40225e:	c3                   	ret    

000000000040225f <urlencode>:
  40225f:	41 54                	push   %r12
  402261:	55                   	push   %rbp
  402262:	53                   	push   %rbx
  402263:	48 83 ec 10          	sub    $0x10,%rsp
  402267:	48 89 fb             	mov    %rdi,%rbx
  40226a:	48 89 f5             	mov    %rsi,%rbp
  40226d:	64 48 8b 04 25 28 00 	mov    %fs:0x28,%rax
  402274:	00 00 
  402276:	48 89 44 24 08       	mov    %rax,0x8(%rsp)
  40227b:	31 c0                	xor    %eax,%eax
  40227d:	48 c7 c1 ff ff ff ff 	mov    $0xffffffffffffffff,%rcx
  402284:	f2 ae                	repnz scas %es:(%rdi),%al
  402286:	48 f7 d1             	not    %rcx
  402289:	8d 41 ff             	lea    -0x1(%rcx),%eax
  40228c:	e9 aa 00 00 00       	jmp    40233b <urlencode+0xdc>
  402291:	44 0f b6 03          	movzbl (%rbx),%r8d
  402295:	41 80 f8 2a          	cmp    $0x2a,%r8b
  402299:	0f 94 c2             	sete   %dl
  40229c:	41 80 f8 2d          	cmp    $0x2d,%r8b
  4022a0:	0f 94 c0             	sete   %al
  4022a3:	08 c2                	or     %al,%dl
  4022a5:	75 24                	jne    4022cb <urlencode+0x6c>
  4022a7:	41 80 f8 2e          	cmp    $0x2e,%r8b
  4022ab:	74 1e                	je     4022cb <urlencode+0x6c>
  4022ad:	41 80 f8 5f          	cmp    $0x5f,%r8b
  4022b1:	74 18                	je     4022cb <urlencode+0x6c>
  4022b3:	41 8d 40 d0          	lea    -0x30(%r8),%eax
  4022b7:	3c 09                	cmp    $0x9,%al
  4022b9:	76 10                	jbe    4022cb <urlencode+0x6c>
  4022bb:	41 8d 40 bf          	lea    -0x41(%r8),%eax
  4022bf:	3c 19                	cmp    $0x19,%al
  4022c1:	76 08                	jbe    4022cb <urlencode+0x6c>
  4022c3:	41 8d 40 9f          	lea    -0x61(%r8),%eax
  4022c7:	3c 19                	cmp    $0x19,%al
  4022c9:	77 0a                	ja     4022d5 <urlencode+0x76>
  4022cb:	44 88 45 00          	mov    %r8b,0x0(%rbp)
  4022cf:	48 8d 6d 01          	lea    0x1(%rbp),%rbp
  4022d3:	eb 5f                	jmp    402334 <urlencode+0xd5>
  4022d5:	41 80 f8 20          	cmp    $0x20,%r8b
  4022d9:	75 0a                	jne    4022e5 <urlencode+0x86>
  4022db:	c6 45 00 2b          	movb   $0x2b,0x0(%rbp)
  4022df:	48 8d 6d 01          	lea    0x1(%rbp),%rbp
  4022e3:	eb 4f                	jmp    402334 <urlencode+0xd5>
  4022e5:	41 8d 40 e0          	lea    -0x20(%r8),%eax
  4022e9:	3c 5f                	cmp    $0x5f,%al
  4022eb:	0f 96 c2             	setbe  %dl
  4022ee:	41 80 f8 09          	cmp    $0x9,%r8b
  4022f2:	0f 94 c0             	sete   %al
  4022f5:	08 c2                	or     %al,%dl
  4022f7:	74 50                	je     402349 <urlencode+0xea>
  4022f9:	45 0f b6 c0          	movzbl %r8b,%r8d
  4022fd:	b9 78 37 40 00       	mov    $0x403778,%ecx
  402302:	ba 08 00 00 00       	mov    $0x8,%edx
  402307:	be 01 00 00 00       	mov    $0x1,%esi
  40230c:	48 89 e7             	mov    %rsp,%rdi
  40230f:	b8 00 00 00 00       	mov    $0x0,%eax
  402314:	e8 67 eb ff ff       	call   400e80 <__sprintf_chk@plt>
  402319:	0f b6 04 24          	movzbl (%rsp),%eax
  40231d:	88 45 00             	mov    %al,0x0(%rbp)
  402320:	0f b6 44 24 01       	movzbl 0x1(%rsp),%eax
  402325:	88 45 01             	mov    %al,0x1(%rbp)
  402328:	0f b6 44 24 02       	movzbl 0x2(%rsp),%eax
  40232d:	88 45 02             	mov    %al,0x2(%rbp)
  402330:	48 8d 6d 03          	lea    0x3(%rbp),%rbp
  402334:	48 83 c3 01          	add    $0x1,%rbx
  402338:	44 89 e0             	mov    %r12d,%eax
  40233b:	44 8d 60 ff          	lea    -0x1(%rax),%r12d
  40233f:	85 c0                	test   %eax,%eax
  402341:	0f 85 4a ff ff ff    	jne    402291 <urlencode+0x32>
  402347:	eb 05                	jmp    40234e <urlencode+0xef>
  402349:	b8 ff ff ff ff       	mov    $0xffffffff,%eax
  40234e:	48 8b 74 24 08       	mov    0x8(%rsp),%rsi
  402353:	64 48 33 34 25 28 00 	xor    %fs:0x28,%rsi
  40235a:	00 00 
  40235c:	74 05                	je     402363 <urlencode+0x104>
  40235e:	e8 8d e9 ff ff       	call   400cf0 <__stack_chk_fail@plt>
  402363:	48 83 c4 10          	add    $0x10,%rsp
  402367:	5b                   	pop    %rbx
  402368:	5d                   	pop    %rbp
  402369:	41 5c                	pop    %r12
  40236b:	c3                   	ret    

000000000040236c <submitr>:
  40236c:	41 57                	push   %r15
  40236e:	41 56                	push   %r14
  402370:	41 55                	push   %r13
  402372:	41 54                	push   %r12
  402374:	55                   	push   %rbp
  402375:	53                   	push   %rbx
  402376:	48 81 ec 58 a0 00 00 	sub    $0xa058,%rsp
  40237d:	49 89 fc             	mov    %rdi,%r12
  402380:	89 74 24 04          	mov    %esi,0x4(%rsp)
  402384:	49 89 d7             	mov    %rdx,%r15
  402387:	49 89 ce             	mov    %rcx,%r14
  40238a:	4c 89 44 24 08       	mov    %r8,0x8(%rsp)
  40238f:	4d 89 cd             	mov    %r9,%r13
  402392:	48 8b 9c 24 90 a0 00 	mov    0xa090(%rsp),%rbx
  402399:	00 
  40239a:	64 48 8b 04 25 28 00 	mov    %fs:0x28,%rax
  4023a1:	00 00 
  4023a3:	48 89 84 24 48 a0 00 	mov    %rax,0xa048(%rsp)
  4023aa:	00 
  4023ab:	31 c0                	xor    %eax,%eax
  4023ad:	c7 44 24 1c 00 00 00 	movl   $0x0,0x1c(%rsp)
  4023b4:	00 
  4023b5:	ba 00 00 00 00       	mov    $0x0,%edx
  4023ba:	be 01 00 00 00       	mov    $0x1,%esi
  4023bf:	bf 02 00 00 00       	mov    $0x2,%edi
  4023c4:	e8 c7 ea ff ff       	call   400e90 <socket@plt>
  4023c9:	85 c0                	test   %eax,%eax
  4023cb:	79 4e                	jns    40241b <submitr+0xaf>
  4023cd:	48 b8 45 72 72 6f 72 	movabs $0x43203a726f727245,%rax
  4023d4:	3a 20 43 
  4023d7:	48 89 03             	mov    %rax,(%rbx)
  4023da:	48 b8 6c 69 65 6e 74 	movabs $0x6e7520746e65696c,%rax
  4023e1:	20 75 6e 
  4023e4:	48 89 43 08          	mov    %rax,0x8(%rbx)
  4023e8:	48 b8 61 62 6c 65 20 	movabs $0x206f7420656c6261,%rax
  4023ef:	74 6f 20 
  4023f2:	48 89 43 10          	mov    %rax,0x10(%rbx)
  4023f6:	48 b8 63 72 65 61 74 	movabs $0x7320657461657263,%rax
  4023fd:	65 20 73 
  402400:	48 89 43 18          	mov    %rax,0x18(%rbx)
  402404:	c7 43 20 6f 63 6b 65 	movl   $0x656b636f,0x20(%rbx)
  40240b:	66 c7 43 24 74 00    	movw   $0x74,0x24(%rbx)
  402411:	b8 ff ff ff ff       	mov    $0xffffffff,%eax
  402416:	e9 97 06 00 00       	jmp    402ab2 <submitr+0x746>
  40241b:	89 c5                	mov    %eax,%ebp
  40241d:	4c 89 e7             	mov    %r12,%rdi
  402420:	e8 4b e9 ff ff       	call   400d70 <gethostbyname@plt>
  402425:	48 85 c0             	test   %rax,%rax
  402428:	75 67                	jne    402491 <submitr+0x125>
  40242a:	48 b8 45 72 72 6f 72 	movabs $0x44203a726f727245,%rax
  402431:	3a 20 44 
  402434:	48 89 03             	mov    %rax,(%rbx)
  402437:	48 b8 4e 53 20 69 73 	movabs $0x6e7520736920534e,%rax
  40243e:	20 75 6e 
  402441:	48 89 43 08          	mov    %rax,0x8(%rbx)
  402445:	48 b8 61 62 6c 65 20 	movabs $0x206f7420656c6261,%rax
  40244c:	74 6f 20 
  40244f:	48 89 43 10          	mov    %rax,0x10(%rbx)
  402453:	48 b8 72 65 73 6f 6c 	movabs $0x2065766c6f736572,%rax
  40245a:	76 65 20 
  40245d:	48 89 43 18          	mov    %rax,0x18(%rbx)
  402461:	48 b8 73 65 72 76 65 	movabs $0x6120726576726573,%rax
  402468:	72 20 61 
  40246b:	48 89 43 20          	mov    %rax,0x20(%rbx)
  40246f:	c7 43 28 64 64 72 65 	movl   $0x65726464,0x28(%rbx)
  402476:	66 c7 43 2c 73 73    	movw   $0x7373,0x2c(%rbx)
  40247c:	c6 43 2e 00          	movb   $0x0,0x2e(%rbx)
  402480:	89 ef                	mov    %ebp,%edi
  402482:	e8 a9 e8 ff ff       	call   400d30 <close@plt>
  402487:	b8 ff ff ff ff       	mov    $0xffffffff,%eax
  40248c:	e9 21 06 00 00       	jmp    402ab2 <submitr+0x746>
  402491:	48 c7 44 24 20 00 00 	movq   $0x0,0x20(%rsp)
  402498:	00 00 
  40249a:	48 c7 44 24 28 00 00 	movq   $0x0,0x28(%rsp)
  4024a1:	00 00 
  4024a3:	66 c7 44 24 20 02 00 	movw   $0x2,0x20(%rsp)
  4024aa:	48 63 50 14          	movslq 0x14(%rax),%rdx
  4024ae:	48 8b 40 18          	mov    0x18(%rax),%rax
  4024b2:	48 8b 30             	mov    (%rax),%rsi
  4024b5:	48 8d 7c 24 24       	lea    0x24(%rsp),%rdi
  4024ba:	b9 0c 00 00 00       	mov    $0xc,%ecx
  4024bf:	e8 bc e8 ff ff       	call   400d80 <__memmove_chk@plt>
  4024c4:	0f b7 44 24 04       	movzwl 0x4(%rsp),%eax
  4024c9:	66 c1 c8 08          	ror    $0x8,%ax
  4024cd:	66 89 44 24 22       	mov    %ax,0x22(%rsp)
  4024d2:	ba 10 00 00 00       	mov    $0x10,%edx
  4024d7:	48 8d 74 24 20       	lea    0x20(%rsp),%rsi
  4024dc:	89 ef                	mov    %ebp,%edi
  4024de:	e8 7d e9 ff ff       	call   400e60 <connect@plt>
  4024e3:	85 c0                	test   %eax,%eax
  4024e5:	79 59                	jns    402540 <submitr+0x1d4>
  4024e7:	48 b8 45 72 72 6f 72 	movabs $0x55203a726f727245,%rax
  4024ee:	3a 20 55 
  4024f1:	48 89 03             	mov    %rax,(%rbx)
  4024f4:	48 b8 6e 61 62 6c 65 	movabs $0x6f7420656c62616e,%rax
  4024fb:	20 74 6f 
  4024fe:	48 89 43 08          	mov    %rax,0x8(%rbx)
  402502:	48 b8 20 63 6f 6e 6e 	movabs $0x7463656e6e6f6320,%rax
  402509:	65 63 74 
  40250c:	48 89 43 10          	mov    %rax,0x10(%rbx)
  402510:	48 b8 20 74 6f 20 74 	movabs $0x20656874206f7420,%rax
  402517:	68 65 20 
  40251a:	48 89 43 18          	mov    %rax,0x18(%rbx)
  40251e:	c7 43 20 73 65 72 76 	movl   $0x76726573,0x20(%rbx)
  402525:	66 c7 43 24 65 72    	movw   $0x7265,0x24(%rbx)
  40252b:	c6 43 26 00          	movb   $0x0,0x26(%rbx)
  40252f:	89 ef                	mov    %ebp,%edi
  402531:	e8 fa e7 ff ff       	call   400d30 <close@plt>
  402536:	b8 ff ff ff ff       	mov    $0xffffffff,%eax
  40253b:	e9 72 05 00 00       	jmp    402ab2 <submitr+0x746>
  402540:	48 c7 c6 ff ff ff ff 	mov    $0xffffffffffffffff,%rsi
  402547:	b8 00 00 00 00       	mov    $0x0,%eax
  40254c:	48 89 f1             	mov    %rsi,%rcx
  40254f:	4c 89 ef             	mov    %r13,%rdi
  402552:	f2 ae                	repnz scas %es:(%rdi),%al
  402554:	48 f7 d1             	not    %rcx
  402557:	48 89 ca             	mov    %rcx,%rdx
  40255a:	48 89 f1             	mov    %rsi,%rcx
  40255d:	4c 89 ff             	mov    %r15,%rdi
  402560:	f2 ae                	repnz scas %es:(%rdi),%al
  402562:	48 f7 d1             	not    %rcx
  402565:	49 89 c8             	mov    %rcx,%r8
  402568:	48 89 f1             	mov    %rsi,%rcx
  40256b:	4c 89 f7             	mov    %r14,%rdi
  40256e:	f2 ae                	repnz scas %es:(%rdi),%al
  402570:	48 f7 d1             	not    %rcx
  402573:	4d 8d 44 08 fe       	lea    -0x2(%r8,%rcx,1),%r8
  402578:	48 89 f1             	mov    %rsi,%rcx
  40257b:	48 8b 7c 24 08       	mov    0x8(%rsp),%rdi
  402580:	f2 ae                	repnz scas %es:(%rdi),%al
  402582:	48 89 c8             	mov    %rcx,%rax
  402585:	48 f7 d0             	not    %rax
  402588:	49 8d 4c 00 ff       	lea    -0x1(%r8,%rax,1),%rcx
  40258d:	48 8d 44 52 fd       	lea    -0x3(%rdx,%rdx,2),%rax
  402592:	48 8d 84 01 80 00 00 	lea    0x80(%rcx,%rax,1),%rax
  402599:	00 
  40259a:	48 3d 00 20 00 00    	cmp    $0x2000,%rax
  4025a0:	76 72                	jbe    402614 <submitr+0x2a8>
  4025a2:	48 b8 45 72 72 6f 72 	movabs $0x52203a726f727245,%rax
  4025a9:	3a 20 52 
  4025ac:	48 89 03             	mov    %rax,(%rbx)
  4025af:	48 b8 65 73 75 6c 74 	movabs $0x747320746c757365,%rax
  4025b6:	20 73 74 
  4025b9:	48 89 43 08          	mov    %rax,0x8(%rbx)
  4025bd:	48 b8 72 69 6e 67 20 	movabs $0x6f6f7420676e6972,%rax
  4025c4:	74 6f 6f 
  4025c7:	48 89 43 10          	mov    %rax,0x10(%rbx)
  4025cb:	48 b8 20 6c 61 72 67 	movabs $0x202e656772616c20,%rax
  4025d2:	65 2e 20 
  4025d5:	48 89 43 18          	mov    %rax,0x18(%rbx)
  4025d9:	48 b8 49 6e 63 72 65 	movabs $0x6573616572636e49,%rax
  4025e0:	61 73 65 
  4025e3:	48 89 43 20          	mov    %rax,0x20(%rbx)
  4025e7:	48 b8 20 53 55 42 4d 	movabs $0x5254494d42555320,%rax
  4025ee:	49 54 52 
  4025f1:	48 89 43 28          	mov    %rax,0x28(%rbx)
  4025f5:	48 b8 5f 4d 41 58 42 	movabs $0x46554258414d5f,%rax
  4025fc:	55 46 00 
  4025ff:	48 89 43 30          	mov    %rax,0x30(%rbx)
  402603:	89 ef                	mov    %ebp,%edi
  402605:	e8 26 e7 ff ff       	call   400d30 <close@plt>
  40260a:	b8 ff ff ff ff       	mov    $0xffffffff,%eax
  40260f:	e9 9e 04 00 00       	jmp    402ab2 <submitr+0x746>
  402614:	48 8d b4 24 40 40 00 	lea    0x4040(%rsp),%rsi
  40261b:	00 
  40261c:	b9 00 04 00 00       	mov    $0x400,%ecx
  402621:	b8 00 00 00 00       	mov    $0x0,%eax
  402626:	48 89 f7             	mov    %rsi,%rdi
  402629:	f3 48 ab             	rep stos %rax,%es:(%rdi)
  40262c:	4c 89 ef             	mov    %r13,%rdi
  40262f:	e8 2b fc ff ff       	call   40225f <urlencode>
  402634:	85 c0                	test   %eax,%eax
  402636:	0f 89 8a 00 00 00    	jns    4026c6 <submitr+0x35a>
  40263c:	48 b8 45 72 72 6f 72 	movabs $0x52203a726f727245,%rax
  402643:	3a 20 52 
  402646:	48 89 03             	mov    %rax,(%rbx)
  402649:	48 b8 65 73 75 6c 74 	movabs $0x747320746c757365,%rax
  402650:	20 73 74 
  402653:	48 89 43 08          	mov    %rax,0x8(%rbx)
  402657:	48 b8 72 69 6e 67 20 	movabs $0x6e6f6320676e6972,%rax
  40265e:	63 6f 6e 
  402661:	48 89 43 10          	mov    %rax,0x10(%rbx)
  402665:	48 b8 74 61 69 6e 73 	movabs $0x6e6120736e696174,%rax
  40266c:	20 61 6e 
  40266f:	48 89 43 18          	mov    %rax,0x18(%rbx)
  402673:	48 b8 20 69 6c 6c 65 	movabs $0x6c6167656c6c6920,%rax
  40267a:	67 61 6c 
  40267d:	48 89 43 20          	mov    %rax,0x20(%rbx)
  402681:	48 b8 20 6f 72 20 75 	movabs $0x72706e7520726f20,%rax
  402688:	6e 70 72 
  40268b:	48 89 43 28          	mov    %rax,0x28(%rbx)
  40268f:	48 b8 69 6e 74 61 62 	movabs $0x20656c6261746e69,%rax
  402696:	6c 65 20 
  402699:	48 89 43 30          	mov    %rax,0x30(%rbx)
  40269d:	48 b8 63 68 61 72 61 	movabs $0x6574636172616863,%rax
  4026a4:	63 74 65 
  4026a7:	48 89 43 38          	mov    %rax,0x38(%rbx)
  4026ab:	66 c7 43 40 72 2e    	movw   $0x2e72,0x40(%rbx)
  4026b1:	c6 43 42 00          	movb   $0x0,0x42(%rbx)
  4026b5:	89 ef                	mov    %ebp,%edi
  4026b7:	e8 74 e6 ff ff       	call   400d30 <close@plt>
  4026bc:	b8 ff ff ff ff       	mov    $0xffffffff,%eax
  4026c1:	e9 ec 03 00 00       	jmp    402ab2 <submitr+0x746>
  4026c6:	4c 8d ac 24 40 20 00 	lea    0x2040(%rsp),%r13
  4026cd:	00 
  4026ce:	41 54                	push   %r12
  4026d0:	48 8d 84 24 48 40 00 	lea    0x4048(%rsp),%rax
  4026d7:	00 
  4026d8:	50                   	push   %rax
  4026d9:	4d 89 f9             	mov    %r15,%r9
  4026dc:	4d 89 f0             	mov    %r14,%r8
  4026df:	b9 08 37 40 00       	mov    $0x403708,%ecx
  4026e4:	ba 00 20 00 00       	mov    $0x2000,%edx
  4026e9:	be 01 00 00 00       	mov    $0x1,%esi
  4026ee:	4c 89 ef             	mov    %r13,%rdi
  4026f1:	b8 00 00 00 00       	mov    $0x0,%eax
  4026f6:	e8 85 e7 ff ff       	call   400e80 <__sprintf_chk@plt>
  4026fb:	b8 00 00 00 00       	mov    $0x0,%eax
  402700:	48 c7 c1 ff ff ff ff 	mov    $0xffffffffffffffff,%rcx
  402707:	4c 89 ef             	mov    %r13,%rdi
  40270a:	f2 ae                	repnz scas %es:(%rdi),%al
  40270c:	48 f7 d1             	not    %rcx
  40270f:	48 8d 51 ff          	lea    -0x1(%rcx),%rdx
  402713:	4c 89 ee             	mov    %r13,%rsi
  402716:	89 ef                	mov    %ebp,%edi
  402718:	e8 b1 f9 ff ff       	call   4020ce <rio_writen>
  40271d:	48 83 c4 10          	add    $0x10,%rsp
  402721:	48 85 c0             	test   %rax,%rax
  402724:	79 6e                	jns    402794 <submitr+0x428>
  402726:	48 b8 45 72 72 6f 72 	movabs $0x43203a726f727245,%rax
  40272d:	3a 20 43 
  402730:	48 89 03             	mov    %rax,(%rbx)
  402733:	48 b8 6c 69 65 6e 74 	movabs $0x6e7520746e65696c,%rax
  40273a:	20 75 6e 
  40273d:	48 89 43 08          	mov    %rax,0x8(%rbx)
  402741:	48 b8 61 62 6c 65 20 	movabs $0x206f7420656c6261,%rax
  402748:	74 6f 20 
  40274b:	48 89 43 10          	mov    %rax,0x10(%rbx)
  40274f:	48 b8 77 72 69 74 65 	movabs $0x6f74206574697277,%rax
  402756:	20 74 6f 
  402759:	48 89 43 18          	mov    %rax,0x18(%rbx)
  40275d:	48 b8 20 74 68 65 20 	movabs $0x7365722065687420,%rax
  402764:	72 65 73 
  402767:	48 89 43 20          	mov    %rax,0x20(%rbx)
  40276b:	48 b8 75 6c 74 20 73 	movabs $0x7672657320746c75,%rax
  402772:	65 72 76 
  402775:	48 89 43 28          	mov    %rax,0x28(%rbx)
  402779:	66 c7 43 30 65 72    	movw   $0x7265,0x30(%rbx)
  40277f:	c6 43 32 00          	movb   $0x0,0x32(%rbx)
  402783:	89 ef                	mov    %ebp,%edi
  402785:	e8 a6 e5 ff ff       	call   400d30 <close@plt>
  40278a:	b8 ff ff ff ff       	mov    $0xffffffff,%eax
  40278f:	e9 1e 03 00 00       	jmp    402ab2 <submitr+0x746>
  402794:	89 ee                	mov    %ebp,%esi
  402796:	48 8d 7c 24 30       	lea    0x30(%rsp),%rdi
  40279b:	e8 ee f8 ff ff       	call   40208e <rio_readinitb>
  4027a0:	ba 00 20 00 00       	mov    $0x2000,%edx
  4027a5:	48 8d b4 24 40 20 00 	lea    0x2040(%rsp),%rsi
  4027ac:	00 
  4027ad:	48 8d 7c 24 30       	lea    0x30(%rsp),%rdi
  4027b2:	e8 fe f9 ff ff       	call   4021b5 <rio_readlineb>
  4027b7:	48 85 c0             	test   %rax,%rax
  4027ba:	7f 7d                	jg     402839 <submitr+0x4cd>
  4027bc:	48 b8 45 72 72 6f 72 	movabs $0x43203a726f727245,%rax
  4027c3:	3a 20 43 
  4027c6:	48 89 03             	mov    %rax,(%rbx)
  4027c9:	48 b8 6c 69 65 6e 74 	movabs $0x6e7520746e65696c,%rax
  4027d0:	20 75 6e 
  4027d3:	48 89 43 08          	mov    %rax,0x8(%rbx)
  4027d7:	48 b8 61 62 6c 65 20 	movabs $0x206f7420656c6261,%rax
  4027de:	74 6f 20 
  4027e1:	48 89 43 10          	mov    %rax,0x10(%rbx)
  4027e5:	48 b8 72 65 61 64 20 	movabs $0x7269662064616572,%rax
  4027ec:	66 69 72 
  4027ef:	48 89 43 18          	mov    %rax,0x18(%rbx)
  4027f3:	48 b8 73 74 20 68 65 	movabs $0x6564616568207473,%rax
  4027fa:	61 64 65 
  4027fd:	48 89 43 20          	mov    %rax,0x20(%rbx)
  402801:	48 b8 72 20 66 72 6f 	movabs $0x72206d6f72662072,%rax
  402808:	6d 20 72 
  40280b:	48 89 43 28          	mov    %rax,0x28(%rbx)
  40280f:	48 b8 65 73 75 6c 74 	movabs $0x657320746c757365,%rax
  402816:	20 73 65 
  402819:	48 89 43 30          	mov    %rax,0x30(%rbx)
  40281d:	c7 43 38 72 76 65 72 	movl   $0x72657672,0x38(%rbx)
  402824:	c6 43 3c 00          	movb   $0x0,0x3c(%rbx)
  402828:	89 ef                	mov    %ebp,%edi
  40282a:	e8 01 e5 ff ff       	call   400d30 <close@plt>
  40282f:	b8 ff ff ff ff       	mov    $0xffffffff,%eax
  402834:	e9 79 02 00 00       	jmp    402ab2 <submitr+0x746>
  402839:	4c 8d 84 24 40 80 00 	lea    0x8040(%rsp),%r8
  402840:	00 
  402841:	48 8d 4c 24 1c       	lea    0x1c(%rsp),%rcx
  402846:	48 8d 94 24 40 60 00 	lea    0x6040(%rsp),%rdx
  40284d:	00 
  40284e:	be 7f 37 40 00       	mov    $0x40377f,%esi
  402853:	48 8d bc 24 40 20 00 	lea    0x2040(%rsp),%rdi
  40285a:	00 
  40285b:	b8 00 00 00 00       	mov    $0x0,%eax
  402860:	e8 7b e5 ff ff       	call   400de0 <__isoc99_sscanf@plt>
  402865:	e9 95 00 00 00       	jmp    4028ff <submitr+0x593>
  40286a:	ba 00 20 00 00       	mov    $0x2000,%edx
  40286f:	48 8d b4 24 40 20 00 	lea    0x2040(%rsp),%rsi
  402876:	00 
  402877:	48 8d 7c 24 30       	lea    0x30(%rsp),%rdi
  40287c:	e8 34 f9 ff ff       	call   4021b5 <rio_readlineb>
  402881:	48 85 c0             	test   %rax,%rax
  402884:	7f 79                	jg     4028ff <submitr+0x593>
  402886:	48 b8 45 72 72 6f 72 	movabs $0x43203a726f727245,%rax
  40288d:	3a 20 43 
  402890:	48 89 03             	mov    %rax,(%rbx)
  402893:	48 b8 6c 69 65 6e 74 	movabs $0x6e7520746e65696c,%rax
  40289a:	20 75 6e 
  40289d:	48 89 43 08          	mov    %rax,0x8(%rbx)
  4028a1:	48 b8 61 62 6c 65 20 	movabs $0x206f7420656c6261,%rax
  4028a8:	74 6f 20 
  4028ab:	48 89 43 10          	mov    %rax,0x10(%rbx)
  4028af:	48 b8 72 65 61 64 20 	movabs $0x6165682064616572,%rax
  4028b6:	68 65 61 
  4028b9:	48 89 43 18          	mov    %rax,0x18(%rbx)
  4028bd:	48 b8 64 65 72 73 20 	movabs $0x6f72662073726564,%rax
  4028c4:	66 72 6f 
  4028c7:	48 89 43 20          	mov    %rax,0x20(%rbx)
  4028cb:	48 b8 6d 20 74 68 65 	movabs $0x657220656874206d,%rax
  4028d2:	20 72 65 
  4028d5:	48 89 43 28          	mov    %rax,0x28(%rbx)
  4028d9:	48 b8 73 75 6c 74 20 	movabs $0x72657320746c7573,%rax
  4028e0:	73 65 72 
  4028e3:	48 89 43 30          	mov    %rax,0x30(%rbx)
  4028e7:	c7 43 38 76 65 72 00 	movl   $0x726576,0x38(%rbx)
  4028ee:	89 ef                	mov    %ebp,%edi
  4028f0:	e8 3b e4 ff ff       	call   400d30 <close@plt>
  4028f5:	b8 ff ff ff ff       	mov    $0xffffffff,%eax
  4028fa:	e9 b3 01 00 00       	jmp    402ab2 <submitr+0x746>
  4028ff:	0f b6 94 24 40 20 00 	movzbl 0x2040(%rsp),%edx
  402906:	00 
  402907:	b8 0d 00 00 00       	mov    $0xd,%eax
  40290c:	29 d0                	sub    %edx,%eax
  40290e:	75 1b                	jne    40292b <submitr+0x5bf>
  402910:	0f b6 94 24 41 20 00 	movzbl 0x2041(%rsp),%edx
  402917:	00 
  402918:	b8 0a 00 00 00       	mov    $0xa,%eax
  40291d:	29 d0                	sub    %edx,%eax
  40291f:	75 0a                	jne    40292b <submitr+0x5bf>
  402921:	0f b6 84 24 42 20 00 	movzbl 0x2042(%rsp),%eax
  402928:	00 
  402929:	f7 d8                	neg    %eax
  40292b:	85 c0                	test   %eax,%eax
  40292d:	0f 85 37 ff ff ff    	jne    40286a <submitr+0x4fe>
  402933:	ba 00 20 00 00       	mov    $0x2000,%edx
  402938:	48 8d b4 24 40 20 00 	lea    0x2040(%rsp),%rsi
  40293f:	00 
  402940:	48 8d 7c 24 30       	lea    0x30(%rsp),%rdi
  402945:	e8 6b f8 ff ff       	call   4021b5 <rio_readlineb>
  40294a:	48 85 c0             	test   %rax,%rax
  40294d:	0f 8f 83 00 00 00    	jg     4029d6 <submitr+0x66a>
  402953:	48 b8 45 72 72 6f 72 	movabs $0x43203a726f727245,%rax
  40295a:	3a 20 43 
  40295d:	48 89 03             	mov    %rax,(%rbx)
  402960:	48 b8 6c 69 65 6e 74 	movabs $0x6e7520746e65696c,%rax
  402967:	20 75 6e 
  40296a:	48 89 43 08          	mov    %rax,0x8(%rbx)
  40296e:	48 b8 61 62 6c 65 20 	movabs $0x206f7420656c6261,%rax
  402975:	74 6f 20 
  402978:	48 89 43 10          	mov    %rax,0x10(%rbx)
  40297c:	48 b8 72 65 61 64 20 	movabs $0x6174732064616572,%rax
  402983:	73 74 61 
  402986:	48 89 43 18          	mov    %rax,0x18(%rbx)
  40298a:	48 b8 74 75 73 20 6d 	movabs $0x7373656d20737574,%rax
  402991:	65 73 73 
  402994:	48 89 43 20          	mov    %rax,0x20(%rbx)
  402998:	48 b8 61 67 65 20 66 	movabs $0x6d6f726620656761,%rax
  40299f:	72 6f 6d 
  4029a2:	48 89 43 28          	mov    %rax,0x28(%rbx)
  4029a6:	48 b8 20 72 65 73 75 	movabs $0x20746c7573657220,%rax
  4029ad:	6c 74 20 
  4029b0:	48 89 43 30          	mov    %rax,0x30(%rbx)
  4029b4:	c7 43 38 73 65 72 76 	movl   $0x76726573,0x38(%rbx)
  4029bb:	66 c7 43 3c 65 72    	movw   $0x7265,0x3c(%rbx)
  4029c1:	c6 43 3e 00          	movb   $0x0,0x3e(%rbx)
  4029c5:	89 ef                	mov    %ebp,%edi
  4029c7:	e8 64 e3 ff ff       	call   400d30 <close@plt>
  4029cc:	b8 ff ff ff ff       	mov    $0xffffffff,%eax
  4029d1:	e9 dc 00 00 00       	jmp    402ab2 <submitr+0x746>
  4029d6:	44 8b 44 24 1c       	mov    0x1c(%rsp),%r8d
  4029db:	41 81 f8 c8 00 00 00 	cmp    $0xc8,%r8d
  4029e2:	74 37                	je     402a1b <submitr+0x6af>
  4029e4:	4c 8d 8c 24 40 80 00 	lea    0x8040(%rsp),%r9
  4029eb:	00 
  4029ec:	b9 48 37 40 00       	mov    $0x403748,%ecx
  4029f1:	48 c7 c2 ff ff ff ff 	mov    $0xffffffffffffffff,%rdx
  4029f8:	be 01 00 00 00       	mov    $0x1,%esi
  4029fd:	48 89 df             	mov    %rbx,%rdi
  402a00:	b8 00 00 00 00       	mov    $0x0,%eax
  402a05:	e8 76 e4 ff ff       	call   400e80 <__sprintf_chk@plt>
  402a0a:	89 ef                	mov    %ebp,%edi
  402a0c:	e8 1f e3 ff ff       	call   400d30 <close@plt>
  402a11:	b8 ff ff ff ff       	mov    $0xffffffff,%eax
  402a16:	e9 97 00 00 00       	jmp    402ab2 <submitr+0x746>
  402a1b:	48 8d b4 24 40 20 00 	lea    0x2040(%rsp),%rsi
  402a22:	00 
  402a23:	48 89 df             	mov    %rbx,%rdi
  402a26:	e8 95 e2 ff ff       	call   400cc0 <strcpy@plt>
  402a2b:	89 ef                	mov    %ebp,%edi
  402a2d:	e8 fe e2 ff ff       	call   400d30 <close@plt>
  402a32:	0f b6 03             	movzbl (%rbx),%eax
  402a35:	ba 4f 00 00 00       	mov    $0x4f,%edx
  402a3a:	29 c2                	sub    %eax,%edx
  402a3c:	75 22                	jne    402a60 <submitr+0x6f4>
  402a3e:	0f b6 4b 01          	movzbl 0x1(%rbx),%ecx
  402a42:	b8 4b 00 00 00       	mov    $0x4b,%eax
  402a47:	29 c8                	sub    %ecx,%eax
  402a49:	75 17                	jne    402a62 <submitr+0x6f6>
  402a4b:	0f b6 4b 02          	movzbl 0x2(%rbx),%ecx
  402a4f:	b8 0a 00 00 00       	mov    $0xa,%eax
  402a54:	29 c8                	sub    %ecx,%eax
  402a56:	75 0a                	jne    402a62 <submitr+0x6f6>
  402a58:	0f b6 43 03          	movzbl 0x3(%rbx),%eax
  402a5c:	f7 d8                	neg    %eax
  402a5e:	eb 02                	jmp    402a62 <submitr+0x6f6>
  402a60:	89 d0                	mov    %edx,%eax
  402a62:	85 c0                	test   %eax,%eax
  402a64:	74 40                	je     402aa6 <submitr+0x73a>
  402a66:	bf 90 37 40 00       	mov    $0x403790,%edi
  402a6b:	b9 05 00 00 00       	mov    $0x5,%ecx
  402a70:	48 89 de             	mov    %rbx,%rsi
  402a73:	f3 a6                	repz cmpsb %es:(%rdi),%ds:(%rsi)
  402a75:	0f 97 c0             	seta   %al
  402a78:	0f 92 c1             	setb   %cl
  402a7b:	29 c8                	sub    %ecx,%eax
  402a7d:	0f be c0             	movsbl %al,%eax
  402a80:	85 c0                	test   %eax,%eax
  402a82:	74 2e                	je     402ab2 <submitr+0x746>
  402a84:	85 d2                	test   %edx,%edx
  402a86:	75 13                	jne    402a9b <submitr+0x72f>
  402a88:	0f b6 43 01          	movzbl 0x1(%rbx),%eax
  402a8c:	ba 4b 00 00 00       	mov    $0x4b,%edx
  402a91:	29 c2                	sub    %eax,%edx
  402a93:	75 06                	jne    402a9b <submitr+0x72f>
  402a95:	0f b6 53 02          	movzbl 0x2(%rbx),%edx
  402a99:	f7 da                	neg    %edx
  402a9b:	85 d2                	test   %edx,%edx
  402a9d:	75 0e                	jne    402aad <submitr+0x741>
  402a9f:	b8 00 00 00 00       	mov    $0x0,%eax
  402aa4:	eb 0c                	jmp    402ab2 <submitr+0x746>
  402aa6:	b8 00 00 00 00       	mov    $0x0,%eax
  402aab:	eb 05                	jmp    402ab2 <submitr+0x746>
  402aad:	b8 ff ff ff ff       	mov    $0xffffffff,%eax
  402ab2:	48 8b 9c 24 48 a0 00 	mov    0xa048(%rsp),%rbx
  402ab9:	00 
  402aba:	64 48 33 1c 25 28 00 	xor    %fs:0x28,%rbx
  402ac1:	00 00 
  402ac3:	74 05                	je     402aca <submitr+0x75e>
  402ac5:	e8 26 e2 ff ff       	call   400cf0 <__stack_chk_fail@plt>
  402aca:	48 81 c4 58 a0 00 00 	add    $0xa058,%rsp
  402ad1:	5b                   	pop    %rbx
  402ad2:	5d                   	pop    %rbp
  402ad3:	41 5c                	pop    %r12
  402ad5:	41 5d                	pop    %r13
  402ad7:	41 5e                	pop    %r14
  402ad9:	41 5f                	pop    %r15
  402adb:	c3                   	ret    

0000000000402adc <init_timeout>:
  402adc:	85 ff                	test   %edi,%edi
  402ade:	74 23                	je     402b03 <init_timeout+0x27>
  402ae0:	53                   	push   %rbx
  402ae1:	89 fb                	mov    %edi,%ebx
  402ae3:	85 ff                	test   %edi,%edi
  402ae5:	79 05                	jns    402aec <init_timeout+0x10>
  402ae7:	bb 00 00 00 00       	mov    $0x0,%ebx
  402aec:	be a0 20 40 00       	mov    $0x4020a0,%esi
  402af1:	bf 0e 00 00 00       	mov    $0xe,%edi
  402af6:	e8 65 e2 ff ff       	call   400d60 <signal@plt>
  402afb:	89 df                	mov    %ebx,%edi
  402afd:	e8 1e e2 ff ff       	call   400d20 <alarm@plt>
  402b02:	5b                   	pop    %rbx
  402b03:	f3 c3                	repz ret 

0000000000402b05 <init_driver>:
  402b05:	55                   	push   %rbp
  402b06:	53                   	push   %rbx
  402b07:	48 83 ec 28          	sub    $0x28,%rsp
  402b0b:	48 89 fd             	mov    %rdi,%rbp
  402b0e:	64 48 8b 04 25 28 00 	mov    %fs:0x28,%rax
  402b15:	00 00 
  402b17:	48 89 44 24 18       	mov    %rax,0x18(%rsp)
  402b1c:	31 c0                	xor    %eax,%eax
  402b1e:	be 01 00 00 00       	mov    $0x1,%esi
  402b23:	bf 0d 00 00 00       	mov    $0xd,%edi
  402b28:	e8 33 e2 ff ff       	call   400d60 <signal@plt>
  402b2d:	be 01 00 00 00       	mov    $0x1,%esi
  402b32:	bf 1d 00 00 00       	mov    $0x1d,%edi
  402b37:	e8 24 e2 ff ff       	call   400d60 <signal@plt>
  402b3c:	be 01 00 00 00       	mov    $0x1,%esi
  402b41:	bf 1d 00 00 00       	mov    $0x1d,%edi
  402b46:	e8 15 e2 ff ff       	call   400d60 <signal@plt>
  402b4b:	ba 00 00 00 00       	mov    $0x0,%edx
  402b50:	be 01 00 00 00       	mov    $0x1,%esi
  402b55:	bf 02 00 00 00       	mov    $0x2,%edi
  402b5a:	e8 31 e3 ff ff       	call   400e90 <socket@plt>
  402b5f:	85 c0                	test   %eax,%eax
  402b61:	79 4f                	jns    402bb2 <init_driver+0xad>
  402b63:	48 b8 45 72 72 6f 72 	movabs $0x43203a726f727245,%rax
  402b6a:	3a 20 43 
  402b6d:	48 89 45 00          	mov    %rax,0x0(%rbp)
  402b71:	48 b8 6c 69 65 6e 74 	movabs $0x6e7520746e65696c,%rax
  402b78:	20 75 6e 
  402b7b:	48 89 45 08          	mov    %rax,0x8(%rbp)
  402b7f:	48 b8 61 62 6c 65 20 	movabs $0x206f7420656c6261,%rax
  402b86:	74 6f 20 
  402b89:	48 89 45 10          	mov    %rax,0x10(%rbp)
  402b8d:	48 b8 63 72 65 61 74 	movabs $0x7320657461657263,%rax
  402b94:	65 20 73 
  402b97:	48 89 45 18          	mov    %rax,0x18(%rbp)
  402b9b:	c7 45 20 6f 63 6b 65 	movl   $0x656b636f,0x20(%rbp)
  402ba2:	66 c7 45 24 74 00    	movw   $0x74,0x24(%rbp)
  402ba8:	b8 ff ff ff ff       	mov    $0xffffffff,%eax
  402bad:	e9 2a 01 00 00       	jmp    402cdc <init_driver+0x1d7>
  402bb2:	89 c3                	mov    %eax,%ebx
  402bb4:	bf 95 37 40 00       	mov    $0x403795,%edi
  402bb9:	e8 b2 e1 ff ff       	call   400d70 <gethostbyname@plt>
  402bbe:	48 85 c0             	test   %rax,%rax
  402bc1:	75 68                	jne    402c2b <init_driver+0x126>
  402bc3:	48 b8 45 72 72 6f 72 	movabs $0x44203a726f727245,%rax
  402bca:	3a 20 44 
  402bcd:	48 89 45 00          	mov    %rax,0x0(%rbp)
  402bd1:	48 b8 4e 53 20 69 73 	movabs $0x6e7520736920534e,%rax
  402bd8:	20 75 6e 
  402bdb:	48 89 45 08          	mov    %rax,0x8(%rbp)
  402bdf:	48 b8 61 62 6c 65 20 	movabs $0x206f7420656c6261,%rax
  402be6:	74 6f 20 
  402be9:	48 89 45 10          	mov    %rax,0x10(%rbp)
  402bed:	48 b8 72 65 73 6f 6c 	movabs $0x2065766c6f736572,%rax
  402bf4:	76 65 20 
  402bf7:	48 89 45 18          	mov    %rax,0x18(%rbp)
  402bfb:	48 b8 73 65 72 76 65 	movabs $0x6120726576726573,%rax
  402c02:	72 20 61 
  402c05:	48 89 45 20          	mov    %rax,0x20(%rbp)
  402c09:	c7 45 28 64 64 72 65 	movl   $0x65726464,0x28(%rbp)
  402c10:	66 c7 45 2c 73 73    	movw   $0x7373,0x2c(%rbp)
  402c16:	c6 45 2e 00          	movb   $0x0,0x2e(%rbp)
  402c1a:	89 df                	mov    %ebx,%edi
  402c1c:	e8 0f e1 ff ff       	call   400d30 <close@plt>
  402c21:	b8 ff ff ff ff       	mov    $0xffffffff,%eax
  402c26:	e9 b1 00 00 00       	jmp    402cdc <init_driver+0x1d7>
  402c2b:	48 c7 04 24 00 00 00 	movq   $0x0,(%rsp)
  402c32:	00 
  402c33:	48 c7 44 24 08 00 00 	movq   $0x0,0x8(%rsp)
  402c3a:	00 00 
  402c3c:	66 c7 04 24 02 00    	movw   $0x2,(%rsp)
  402c42:	48 63 50 14          	movslq 0x14(%rax),%rdx
  402c46:	48 8b 40 18          	mov    0x18(%rax),%rax
  402c4a:	48 8b 30             	mov    (%rax),%rsi
  402c4d:	48 8d 7c 24 04       	lea    0x4(%rsp),%rdi
  402c52:	b9 0c 00 00 00       	mov    $0xc,%ecx
  402c57:	e8 24 e1 ff ff       	call   400d80 <__memmove_chk@plt>
  402c5c:	66 c7 44 24 02 3c 9a 	movw   $0x9a3c,0x2(%rsp)
  402c63:	ba 10 00 00 00       	mov    $0x10,%edx
  402c68:	48 89 e6             	mov    %rsp,%rsi
  402c6b:	89 df                	mov    %ebx,%edi
  402c6d:	e8 ee e1 ff ff       	call   400e60 <connect@plt>
  402c72:	85 c0                	test   %eax,%eax
  402c74:	79 50                	jns    402cc6 <init_driver+0x1c1>
  402c76:	48 b8 45 72 72 6f 72 	movabs $0x55203a726f727245,%rax
  402c7d:	3a 20 55 
  402c80:	48 89 45 00          	mov    %rax,0x0(%rbp)
  402c84:	48 b8 6e 61 62 6c 65 	movabs $0x6f7420656c62616e,%rax
  402c8b:	20 74 6f 
  402c8e:	48 89 45 08          	mov    %rax,0x8(%rbp)
  402c92:	48 b8 20 63 6f 6e 6e 	movabs $0x7463656e6e6f6320,%rax
  402c99:	65 63 74 
  402c9c:	48 89 45 10          	mov    %rax,0x10(%rbp)
  402ca0:	48 b8 20 74 6f 20 73 	movabs $0x76726573206f7420,%rax
  402ca7:	65 72 76 
  402caa:	48 89 45 18          	mov    %rax,0x18(%rbp)
  402cae:	66 c7 45 20 65 72    	movw   $0x7265,0x20(%rbp)
  402cb4:	c6 45 22 00          	movb   $0x0,0x22(%rbp)
  402cb8:	89 df                	mov    %ebx,%edi
  402cba:	e8 71 e0 ff ff       	call   400d30 <close@plt>
  402cbf:	b8 ff ff ff ff       	mov    $0xffffffff,%eax
  402cc4:	eb 16                	jmp    402cdc <init_driver+0x1d7>
  402cc6:	89 df                	mov    %ebx,%edi
  402cc8:	e8 63 e0 ff ff       	call   400d30 <close@plt>
  402ccd:	66 c7 45 00 4f 4b    	movw   $0x4b4f,0x0(%rbp)
  402cd3:	c6 45 02 00          	movb   $0x0,0x2(%rbp)
  402cd7:	b8 00 00 00 00       	mov    $0x0,%eax
  402cdc:	48 8b 4c 24 18       	mov    0x18(%rsp),%rcx
  402ce1:	64 48 33 0c 25 28 00 	xor    %fs:0x28,%rcx
  402ce8:	00 00 
  402cea:	74 05                	je     402cf1 <init_driver+0x1ec>
  402cec:	e8 ff df ff ff       	call   400cf0 <__stack_chk_fail@plt>
  402cf1:	48 83 c4 28          	add    $0x28,%rsp
  402cf5:	5b                   	pop    %rbx
  402cf6:	5d                   	pop    %rbp
  402cf7:	c3                   	ret    

0000000000402cf8 <driver_post>:
  402cf8:	53                   	push   %rbx
  402cf9:	4c 89 cb             	mov    %r9,%rbx
  402cfc:	45 85 c0             	test   %r8d,%r8d
  402cff:	74 27                	je     402d28 <driver_post+0x30>
  402d01:	48 89 ca             	mov    %rcx,%rdx
  402d04:	be aa 37 40 00       	mov    $0x4037aa,%esi
  402d09:	bf 01 00 00 00       	mov    $0x1,%edi
  402d0e:	b8 00 00 00 00       	mov    $0x0,%eax
  402d13:	e8 e8 e0 ff ff       	call   400e00 <__printf_chk@plt>
  402d18:	66 c7 03 4f 4b       	movw   $0x4b4f,(%rbx)
  402d1d:	c6 43 02 00          	movb   $0x0,0x2(%rbx)
  402d21:	b8 00 00 00 00       	mov    $0x0,%eax
  402d26:	eb 3f                	jmp    402d67 <driver_post+0x6f>
  402d28:	48 85 ff             	test   %rdi,%rdi
  402d2b:	74 2c                	je     402d59 <driver_post+0x61>
  402d2d:	80 3f 00             	cmpb   $0x0,(%rdi)
  402d30:	74 27                	je     402d59 <driver_post+0x61>
  402d32:	48 83 ec 08          	sub    $0x8,%rsp
  402d36:	41 51                	push   %r9
  402d38:	49 89 c9             	mov    %rcx,%r9
  402d3b:	49 89 d0             	mov    %rdx,%r8
  402d3e:	48 89 f9             	mov    %rdi,%rcx
  402d41:	48 89 f2             	mov    %rsi,%rdx
  402d44:	be 9a 3c 00 00       	mov    $0x3c9a,%esi
  402d49:	bf 95 37 40 00       	mov    $0x403795,%edi
  402d4e:	e8 19 f6 ff ff       	call   40236c <submitr>
  402d53:	48 83 c4 10          	add    $0x10,%rsp
  402d57:	eb 0e                	jmp    402d67 <driver_post+0x6f>
  402d59:	66 c7 03 4f 4b       	movw   $0x4b4f,(%rbx)
  402d5e:	c6 43 02 00          	movb   $0x0,0x2(%rbx)
  402d62:	b8 00 00 00 00       	mov    $0x0,%eax
  402d67:	5b                   	pop    %rbx
  402d68:	c3                   	ret    

0000000000402d69 <check>:
  402d69:	89 f8                	mov    %edi,%eax
  402d6b:	c1 e8 1c             	shr    $0x1c,%eax
  402d6e:	85 c0                	test   %eax,%eax
  402d70:	74 1d                	je     402d8f <check+0x26>
  402d72:	b9 00 00 00 00       	mov    $0x0,%ecx
  402d77:	eb 0b                	jmp    402d84 <check+0x1b>
  402d79:	89 f8                	mov    %edi,%eax
  402d7b:	d3 e8                	shr    %cl,%eax
  402d7d:	3c 0a                	cmp    $0xa,%al
  402d7f:	74 14                	je     402d95 <check+0x2c>
  402d81:	83 c1 08             	add    $0x8,%ecx
  402d84:	83 f9 1f             	cmp    $0x1f,%ecx
  402d87:	7e f0                	jle    402d79 <check+0x10>
  402d89:	b8 01 00 00 00       	mov    $0x1,%eax
  402d8e:	c3                   	ret    
  402d8f:	b8 00 00 00 00       	mov    $0x0,%eax
  402d94:	c3                   	ret    
  402d95:	b8 00 00 00 00       	mov    $0x0,%eax
  402d9a:	c3                   	ret    

0000000000402d9b <gencookie>:
  402d9b:	53                   	push   %rbx
  402d9c:	83 c7 01             	add    $0x1,%edi
  402d9f:	e8 fc de ff ff       	call   400ca0 <srandom@plt>
  402da4:	e8 17 e0 ff ff       	call   400dc0 <random@plt>
  402da9:	89 c3                	mov    %eax,%ebx
  402dab:	89 c7                	mov    %eax,%edi
  402dad:	e8 b7 ff ff ff       	call   402d69 <check>
  402db2:	85 c0                	test   %eax,%eax
  402db4:	74 ee                	je     402da4 <gencookie+0x9>
  402db6:	89 d8                	mov    %ebx,%eax
  402db8:	5b                   	pop    %rbx
  402db9:	c3                   	ret    
  402dba:	66 0f 1f 44 00 00    	nopw   0x0(%rax,%rax,1)

0000000000402dc0 <__libc_csu_init>:
  402dc0:	41 57                	push   %r15
  402dc2:	41 56                	push   %r14
  402dc4:	41 89 ff             	mov    %edi,%r15d
  402dc7:	41 55                	push   %r13
  402dc9:	41 54                	push   %r12
  402dcb:	4c 8d 25 3e 20 20 00 	lea    0x20203e(%rip),%r12        # 604e10 <__frame_dummy_init_array_entry>
  402dd2:	55                   	push   %rbp
  402dd3:	48 8d 2d 3e 20 20 00 	lea    0x20203e(%rip),%rbp        # 604e18 <__do_global_dtors_aux_fini_array_entry>
  402dda:	53                   	push   %rbx
  402ddb:	49 89 f6             	mov    %rsi,%r14
  402dde:	49 89 d5             	mov    %rdx,%r13
  402de1:	4c 29 e5             	sub    %r12,%rbp
  402de4:	48 83 ec 08          	sub    $0x8,%rsp
  402de8:	48 c1 fd 03          	sar    $0x3,%rbp
  402dec:	e8 57 de ff ff       	call   400c48 <_init>
  402df1:	48 85 ed             	test   %rbp,%rbp
  402df4:	74 20                	je     402e16 <__libc_csu_init+0x56>
  402df6:	31 db                	xor    %ebx,%ebx
  402df8:	0f 1f 84 00 00 00 00 	nopl   0x0(%rax,%rax,1)
  402dff:	00 
  402e00:	4c 89 ea             	mov    %r13,%rdx
  402e03:	4c 89 f6             	mov    %r14,%rsi
  402e06:	44 89 ff             	mov    %r15d,%edi
  402e09:	41 ff 14 dc          	call   *(%r12,%rbx,8)
  402e0d:	48 83 c3 01          	add    $0x1,%rbx
  402e11:	48 39 eb             	cmp    %rbp,%rbx
  402e14:	75 ea                	jne    402e00 <__libc_csu_init+0x40>
  402e16:	48 83 c4 08          	add    $0x8,%rsp
  402e1a:	5b                   	pop    %rbx
  402e1b:	5d                   	pop    %rbp
  402e1c:	41 5c                	pop    %r12
  402e1e:	41 5d                	pop    %r13
  402e20:	41 5e                	pop    %r14
  402e22:	41 5f                	pop    %r15
  402e24:	c3                   	ret    
  402e25:	90                   	nop
  402e26:	66 2e 0f 1f 84 00 00 	cs nopw 0x0(%rax,%rax,1)
  402e2d:	00 00 00 

0000000000402e30 <__libc_csu_fini>:
  402e30:	f3 c3                	repz ret 

Disassembly of section .fini:

0000000000402e34 <_fini>:
  402e34:	48 83 ec 08          	sub    $0x8,%rsp
  402e38:	48 83 c4 08          	add    $0x8,%rsp
  402e3c:	c3                   	ret    
